(lp0
(lp1
(lp2
(lp3
F0.05243287235498428
aa(lp4
F0.05243287235498428
aaa(lp5
(lp6
F0.028200197964906693
aa(lp7
F0.028200197964906693
aaa(lp8
(lp9
F0.019325390458106995
aa(lp10
F0.019325390458106995
aaa(lp11
(lp12
F0.020464353263378143
aa(lp13
F0.020464353263378143
aaa(lp14
(lp15
F0.024135291576385498
aa(lp16
F0.024135291576385498
aaa(lp17
(lp18
F0.02627013437449932
aa(lp19
F0.02627013437449932
aaa(lp20
(lp21
F0.026426544412970543
aa(lp22
F0.026426544412970543
aaa(lp23
(lp24
F0.025121908634901047
aa(lp25
F0.025121908634901047
aaa(lp26
(lp27
F0.02330741100013256
aa(lp28
F0.02330741100013256
aaa(lp29
(lp30
F0.02132730931043625
aa(lp31
F0.02132730931043625
aaa(lp32
(lp33
F0.019805539399385452
aa(lp34
F0.019805539399385452
aaa(lp35
(lp36
F0.018944866955280304
aa(lp37
F0.018944866955280304
aaa(lp38
(lp39
F0.018715988844633102
aa(lp40
F0.018715988844633102
aaa(lp41
(lp42
F0.019098246470093727
aa(lp43
F0.019098246470093727
aaa(lp44
(lp45
F0.01956399716436863
aa(lp46
F0.01956399716436863
aaa(lp47
(lp48
F0.02012273482978344
aa(lp49
F0.02012273482978344
aaa(lp50
(lp51
F0.020506491884589195
aa(lp52
F0.020506491884589195
aaa(lp53
(lp54
F0.020490288734436035
aa(lp55
F0.020490288734436035
aaa(lp56
(lp57
F0.020246518775820732
aa(lp58
F0.020246518775820732
aaa(lp59
(lp60
F0.019790899008512497
aa(lp61
F0.019790899008512497
aaa(lp62
(lp63
F0.019341308623552322
aa(lp64
F0.019341308623552322
aaa(lp65
(lp66
F0.018982667475938797
aa(lp67
F0.018982667475938797
aaa(lp68
(lp69
F0.01875125989317894
aa(lp70
F0.01875125989317894
aaa(lp71
(lp72
F0.01860286481678486
aa(lp73
F0.01860286481678486
aaa(lp74
(lp75
F0.01867162249982357
aa(lp76
F0.01867162249982357
aaa(lp77
(lp78
F0.018721703439950943
aa(lp79
F0.018721703439950943
aaa(lp80
(lp81
F0.018829043954610825
aa(lp82
F0.018829043954610825
aaa(lp83
(lp84
F0.019002795219421387
aa(lp85
F0.019002795219421387
aaa(lp86
(lp87
F0.019003096967935562
aa(lp88
F0.019003096967935562
aaa(lp89
(lp90
F0.01901218108832836
aa(lp91
F0.01901218108832836
aaa(lp92
(lp93
F0.019022919237613678
aa(lp94
F0.019022919237613678
aaa(lp95
(lp96
F0.018870782107114792
aa(lp97
F0.018870782107114792
aaa(lp98
(lp99
F0.018755340948700905
aa(lp100
F0.018755340948700905
aaa(lp101
(lp102
F0.018653787672519684
aa(lp103
F0.018653787672519684
aaa(lp104
(lp105
F0.018503036350011826
aa(lp106
F0.018503036350011826
aaa(lp107
(lp108
F0.018546609207987785
aa(lp109
F0.018546609207987785
aaa(lp110
(lp111
F0.018560150638222694
aa(lp112
F0.018560150638222694
aaa(lp113
(lp114
F0.018464574590325356
aa(lp115
F0.018464574590325356
aaa(lp116
(lp117
F0.0184984989464283
aa(lp118
F0.0184984989464283
aaa(lp119
(lp120
F0.01866956241428852
aa(lp121
F0.01866956241428852
aaa(lp122
(lp123
F0.018532082438468933
aa(lp124
F0.018532082438468933
aaa(lp125
(lp126
F0.018580514937639236
aa(lp127
F0.018580514937639236
aaa(lp128
(lp129
F0.0186086967587471
aa(lp130
F0.0186086967587471
aaa(lp131
(lp132
F0.018563678488135338
aa(lp133
F0.018563678488135338
aaa(lp134
(lp135
F0.01856214553117752
aa(lp136
F0.01856214553117752
aaa(lp137
(lp138
F0.018483931198716164
aa(lp139
F0.018483931198716164
aaa(lp140
(lp141
F0.018473632633686066
aa(lp142
F0.018473632633686066
aaa(lp143
(lp144
F0.0184433963149786
aa(lp145
F0.0184433963149786
aaa(lp146
(lp147
F0.018395401537418365
aa(lp148
F0.018395401537418365
aaa(lp149
(lp150
F0.018361473456025124
aa(lp151
F0.018361473456025124
aaa(lp152
(lp153
F0.018376251682639122
aa(lp154
F0.018376251682639122
aaa(lp155
(lp156
F0.018392451107501984
aa(lp157
F0.018392451107501984
aaa(lp158
(lp159
F0.01843303255736828
aa(lp160
F0.01843303255736828
aaa(lp161
(lp162
F0.01831282302737236
aa(lp163
F0.01831282302737236
aaa(lp164
(lp165
F0.01838892139494419
aa(lp166
F0.01838892139494419
aaa(lp167
(lp168
F0.01839078590273857
aa(lp169
F0.01839078590273857
aaa(lp170
(lp171
F0.018326954916119576
aa(lp172
F0.018326954916119576
aaa(lp173
(lp174
F0.01828385330736637
aa(lp175
F0.01828385330736637
aaa(lp176
(lp177
F0.018242891877889633
aa(lp178
F0.018242891877889633
aaa(lp179
(lp180
F0.018234284594655037
aa(lp181
F0.018234284594655037
aaa(lp182
(lp183
F0.018229415640234947
aa(lp184
F0.018229415640234947
aaa(lp185
(lp186
F0.01824207417666912
aa(lp187
F0.01824207417666912
aaa(lp188
(lp189
F0.018220802769064903
aa(lp190
F0.018220802769064903
aaa(lp191
(lp192
F0.018217379227280617
aa(lp193
F0.018217379227280617
aaa(lp194
(lp195
F0.018211254850029945
aa(lp196
F0.018211254850029945
aaa(lp197
(lp198
F0.018178066238760948
aa(lp199
F0.018178066238760948
aaa(lp200
(lp201
F0.01812993921339512
aa(lp202
F0.01812993921339512
aaa(lp203
(lp204
F0.018190041184425354
aa(lp205
F0.018190041184425354
aaa(lp206
(lp207
F0.01817290298640728
aa(lp208
F0.01817290298640728
aaa(lp209
(lp210
F0.01804974488914013
aa(lp211
F0.01804974488914013
aaa(lp212
(lp213
F0.018220357596874237
aa(lp214
F0.018220357596874237
aaa(lp215
(lp216
F0.01809241622686386
aa(lp217
F0.01809241622686386
aaa(lp218
(lp219
F0.01808721013367176
aa(lp220
F0.01808721013367176
aaa(lp221
(lp222
F0.01804182678461075
aa(lp223
F0.01804182678461075
aaa(lp224
(lp225
F0.018101325258612633
aa(lp226
F0.018101325258612633
aaa(lp227
(lp228
F0.017972521483898163
aa(lp229
F0.017972521483898163
aaa(lp230
(lp231
F0.018015436828136444
aa(lp232
F0.018015436828136444
aaa(lp233
(lp234
F0.018025605008006096
aa(lp235
F0.018025605008006096
aaa(lp236
(lp237
F0.01804373227059841
aa(lp238
F0.01804373227059841
aaa(lp239
(lp240
F0.017915718257427216
aa(lp241
F0.017915718257427216
aaa(lp242
(lp243
F0.018010471016168594
aa(lp244
F0.018010471016168594
aaa(lp245
(lp246
F0.018024811521172523
aa(lp247
F0.018024811521172523
aaa(lp248
(lp249
F0.017902769148349762
aa(lp250
F0.017902769148349762
aaa(lp251
(lp252
F0.017878960818052292
aa(lp253
F0.017878960818052292
aaa(lp254
(lp255
F0.017986832186579704
aa(lp256
F0.017986832186579704
aaa(lp257
(lp258
F0.017826324328780174
aa(lp259
F0.017826324328780174
aaa(lp260
(lp261
F0.01783190667629242
aa(lp262
F0.01783190667629242
aaa(lp263
(lp264
F0.01784101314842701
aa(lp265
F0.01784101314842701
aaa(lp266
(lp267
F0.017785217612981796
aa(lp268
F0.017785217612981796
aaa(lp269
(lp270
F0.017808347940444946
aa(lp271
F0.017808347940444946
aaa(lp272
(lp273
F0.01776469126343727
aa(lp274
F0.01776469126343727
aaa(lp275
(lp276
F0.017825037240982056
aa(lp277
F0.017825037240982056
aaa(lp278
(lp279
F0.017737066373229027
aa(lp280
F0.017737066373229027
aaa(lp281
(lp282
F0.017725298181176186
aa(lp283
F0.017725298181176186
aaa(lp284
(lp285
F0.017698096111416817
aa(lp286
F0.017698096111416817
aaa(lp287
(lp288
F0.01763020269572735
aa(lp289
F0.01763020269572735
aaa(lp290
(lp291
F0.017684707418084145
aa(lp292
F0.017684707418084145
aaa(lp293
(lp294
F0.017722314223647118
aa(lp295
F0.017722314223647118
aaa(lp296
(lp297
F0.017595771700143814
aa(lp298
F0.017595771700143814
aaa(lp299
(lp300
F0.017534255981445312
aa(lp301
F0.017534255981445312
aaaa(lp302
(lp303
(lp304
F0.024245191365480423
aa(lp305
F0.024245191365480423
aaa(lp306
(lp307
F0.012436903081834316
aa(lp308
F0.012436903081834316
aaa(lp309
(lp310
F0.012578031979501247
aa(lp311
F0.012578031979501247
aaa(lp312
(lp313
F0.01594189740717411
aa(lp314
F0.01594189740717411
aaa(lp315
(lp316
F0.018025003373622894
aa(lp317
F0.018025003373622894
aaa(lp318
(lp319
F0.018191823735833168
aa(lp320
F0.018191823735833168
aaa(lp321
(lp322
F0.01701945625245571
aa(lp323
F0.01701945625245571
aaa(lp324
(lp325
F0.015239821746945381
aa(lp326
F0.015239821746945381
aaa(lp327
(lp328
F0.013487890362739563
aa(lp329
F0.013487890362739563
aaa(lp330
(lp331
F0.01222180388867855
aa(lp332
F0.01222180388867855
aaa(lp333
(lp334
F0.01168274786323309
aa(lp335
F0.01168274786323309
aaa(lp336
(lp337
F0.011872822418808937
aa(lp338
F0.011872822418808937
aaa(lp339
(lp340
F0.012583715841174126
aa(lp341
F0.012583715841174126
aaa(lp342
(lp343
F0.013487075455486774
aa(lp344
F0.013487075455486774
aaa(lp345
(lp346
F0.014259628020226955
aa(lp347
F0.014259628020226955
aaa(lp348
(lp349
F0.01468653790652752
aa(lp350
F0.01468653790652752
aaa(lp351
(lp352
F0.014701868407428265
aa(lp353
F0.014701868407428265
aaa(lp354
(lp355
F0.014363796450197697
aa(lp356
F0.014363796450197697
aaa(lp357
(lp358
F0.013803021050989628
aa(lp359
F0.013803021050989628
aaa(lp360
(lp361
F0.01317226979881525
aa(lp362
F0.01317226979881525
aaa(lp363
(lp364
F0.012595982290804386
aa(lp365
F0.012595982290804386
aaa(lp366
(lp367
F0.012154871597886086
aa(lp368
F0.012154871597886086
aaa(lp369
(lp370
F0.01187667716294527
aa(lp371
F0.01187667716294527
aaa(lp372
(lp373
F0.011749520897865295
aa(lp374
F0.011749520897865295
aaa(lp375
(lp376
F0.011733310297131538
aa(lp377
F0.011733310297131538
aaa(lp378
(lp379
F0.011778167448937893
aa(lp380
F0.011778167448937893
aaa(lp381
(lp382
F0.011839202605187893
aa(lp383
F0.011839202605187893
aaa(lp384
(lp385
F0.011883635073900223
aa(lp386
F0.011883635073900223
aaa(lp387
(lp388
F0.011895657517015934
aa(lp389
F0.011895657517015934
aaa(lp390
(lp391
F0.011874295771121979
aa(lp392
F0.011874295771121979
aaa(lp393
(lp394
F0.011830938048660755
aa(lp395
F0.011830938048660755
aaa(lp396
(lp397
F0.011783596128225327
aa(lp398
F0.011783596128225327
aaa(lp399
(lp400
F0.011751517653465271
aa(lp401
F0.011751517653465271
aaa(lp402
(lp403
F0.011749898083508015
aa(lp404
F0.011749898083508015
aaa(lp405
(lp406
F0.011785813607275486
aa(lp407
F0.011785813607275486
aaa(lp408
(lp409
F0.011857438832521439
aa(lp410
F0.011857438832521439
aaa(lp411
(lp412
F0.011953819543123245
aa(lp413
F0.011953819543123245
aaa(lp414
(lp415
F0.012058284133672714
aa(lp416
F0.012058284133672714
aaa(lp417
(lp418
F0.012151779606938362
aa(lp419
F0.012151779606938362
aaa(lp420
(lp421
F0.012218334712088108
aa(lp422
F0.012218334712088108
aaa(lp423
(lp424
F0.012247826904058456
aa(lp425
F0.012247826904058456
aaa(lp426
(lp427
F0.012238899245858192
aa(lp428
F0.012238899245858192
aaa(lp429
(lp430
F0.012195073999464512
aa(lp431
F0.012195073999464512
aaa(lp432
(lp433
F0.012126871384680271
aa(lp434
F0.012126871384680271
aaa(lp435
(lp436
F0.01204717718064785
aa(lp437
F0.01204717718064785
aaa(lp438
(lp439
F0.011966959573328495
aa(lp440
F0.011966959573328495
aaa(lp441
(lp442
F0.011896329931914806
aa(lp443
F0.011896329931914806
aaa(lp444
(lp445
F0.011840633116662502
aa(lp446
F0.011840633116662502
aaa(lp447
(lp448
F0.011801124550402164
aa(lp449
F0.011801124550402164
aaa(lp450
(lp451
F0.011775863356888294
aa(lp452
F0.011775863356888294
aaa(lp453
(lp454
F0.011761250905692577
aa(lp455
F0.011761250905692577
aaa(lp456
(lp457
F0.01175354141741991
aa(lp458
F0.01175354141741991
aaa(lp459
(lp460
F0.011750321835279465
aa(lp461
F0.011750321835279465
aaa(lp462
(lp463
F0.011750583536922932
aa(lp464
F0.011750583536922932
aaa(lp465
(lp466
F0.011754445731639862
aa(lp467
F0.011754445731639862
aaa(lp468
(lp469
F0.011763118207454681
aa(lp470
F0.011763118207454681
aaa(lp471
(lp472
F0.011777394451200962
aa(lp473
F0.011777394451200962
aaa(lp474
(lp475
F0.011797874234616756
aa(lp476
F0.011797874234616756
aaa(lp477
(lp478
F0.011822653003036976
aa(lp479
F0.011822653003036976
aaa(lp480
(lp481
F0.011849245987832546
aa(lp482
F0.011849245987832546
aaa(lp483
(lp484
F0.01187419518828392
aa(lp485
F0.01187419518828392
aaa(lp486
(lp487
F0.011893235146999359
aa(lp488
F0.011893235146999359
aaa(lp489
(lp490
F0.011904959566891193
aa(lp491
F0.011904959566891193
aaa(lp492
(lp493
F0.011906738393008709
aa(lp494
F0.011906738393008709
aaa(lp495
(lp496
F0.011899048462510109
aa(lp497
F0.011899048462510109
aaa(lp498
(lp499
F0.011883334256708622
aa(lp500
F0.011883334256708622
aaa(lp501
(lp502
F0.0118616484105587
aa(lp503
F0.0118616484105587
aaa(lp504
(lp505
F0.01183825172483921
aa(lp506
F0.01183825172483921
aaa(lp507
(lp508
F0.011815213598310947
aa(lp509
F0.011815213598310947
aaa(lp510
(lp511
F0.01179435569792986
aa(lp512
F0.01179435569792986
aaa(lp513
(lp514
F0.011777088046073914
aa(lp515
F0.011777088046073914
aaa(lp516
(lp517
F0.01176385022699833
aa(lp518
F0.01176385022699833
aaa(lp519
(lp520
F0.011754389852285385
aa(lp521
F0.011754389852285385
aaa(lp522
(lp523
F0.011748740449547768
aa(lp524
F0.011748740449547768
aaa(lp525
(lp526
F0.011746671050786972
aa(lp527
F0.011746671050786972
aaa(lp528
(lp529
F0.011747605167329311
aa(lp530
F0.011747605167329311
aaa(lp531
(lp532
F0.01175136398524046
aa(lp533
F0.01175136398524046
aaa(lp534
(lp535
F0.011758214794099331
aa(lp536
F0.011758214794099331
aaa(lp537
(lp538
F0.011765934526920319
aa(lp539
F0.011765934526920319
aaa(lp540
(lp541
F0.011773585341870785
aa(lp542
F0.011773585341870785
aaa(lp543
(lp544
F0.011779531836509705
aa(lp545
F0.011779531836509705
aaa(lp546
(lp547
F0.011782635934650898
aa(lp548
F0.011782635934650898
aaa(lp549
(lp550
F0.011782612651586533
aa(lp551
F0.011782612651586533
aaa(lp552
(lp553
F0.011778713203966618
aa(lp554
F0.011778713203966618
aaa(lp555
(lp556
F0.011772161349654198
aa(lp557
F0.011772161349654198
aaa(lp558
(lp559
F0.011763056740164757
aa(lp560
F0.011763056740164757
aaa(lp561
(lp562
F0.011752685531973839
aa(lp563
F0.011752685531973839
aaa(lp564
(lp565
F0.011740628629922867
aa(lp566
F0.011740628629922867
aaa(lp567
(lp568
F0.011728347279131413
aa(lp569
F0.011728347279131413
aaa(lp570
(lp571
F0.011717131361365318
aa(lp572
F0.011717131361365318
aaa(lp573
(lp574
F0.011708038859069347
aa(lp575
F0.011708038859069347
aaa(lp576
(lp577
F0.011700821109116077
aa(lp578
F0.011700821109116077
aaa(lp579
(lp580
F0.011695876717567444
aa(lp581
F0.011695876717567444
aaa(lp582
(lp583
F0.011693216860294342
aa(lp584
F0.011693216860294342
aaa(lp585
(lp586
F0.01169249601662159
aa(lp587
F0.01169249601662159
aaa(lp588
(lp589
F0.011692846193909645
aa(lp590
F0.011692846193909645
aaa(lp591
(lp592
F0.011694328859448433
aa(lp593
F0.011694328859448433
aaa(lp594
(lp595
F0.011695570312440395
aa(lp596
F0.011695570312440395
aaa(lp597
(lp598
F0.011696256697177887
aa(lp599
F0.011696256697177887
aaa(lp600
(lp601
F0.011694501154124737
aa(lp602
F0.011694501154124737
aaaa(lp603
(lp604
(lp605
F0.024245191365480423
aa(lp606
F0.024245191365480423
aaa(lp607
(lp608
F0.012436903081834316
aa(lp609
F0.012436903081834316
aaa(lp610
(lp611
F0.012578031979501247
aa(lp612
F0.012578031979501247
aaa(lp613
(lp614
F0.01594189740717411
aa(lp615
F0.01594189740717411
aaa(lp616
(lp617
F0.018025003373622894
aa(lp618
F0.018025003373622894
aaa(lp619
(lp620
F0.018191823735833168
aa(lp621
F0.018191823735833168
aaa(lp622
(lp623
F0.01701945625245571
aa(lp624
F0.01701945625245571
aaa(lp625
(lp626
F0.015239821746945381
aa(lp627
F0.015239821746945381
aaa(lp628
(lp629
F0.013487890362739563
aa(lp630
F0.013487890362739563
aaa(lp631
(lp632
F0.01222180388867855
aa(lp633
F0.01222180388867855
aaa(lp634
(lp635
F0.01168274786323309
aa(lp636
F0.01168274786323309
aaa(lp637
(lp638
F0.011872822418808937
aa(lp639
F0.011872822418808937
aaa(lp640
(lp641
F0.012583715841174126
aa(lp642
F0.012583715841174126
aaa(lp643
(lp644
F0.013487075455486774
aa(lp645
F0.013487075455486774
aaa(lp646
(lp647
F0.014259628020226955
aa(lp648
F0.014259628020226955
aaa(lp649
(lp650
F0.01468653790652752
aa(lp651
F0.01468653790652752
aaa(lp652
(lp653
F0.014701868407428265
aa(lp654
F0.014701868407428265
aaa(lp655
(lp656
F0.014363796450197697
aa(lp657
F0.014363796450197697
aaa(lp658
(lp659
F0.013803021050989628
aa(lp660
F0.013803021050989628
aaa(lp661
(lp662
F0.01317226979881525
aa(lp663
F0.01317226979881525
aaa(lp664
(lp665
F0.012595982290804386
aa(lp666
F0.012595982290804386
aaa(lp667
(lp668
F0.012154871597886086
aa(lp669
F0.012154871597886086
aaa(lp670
(lp671
F0.01187667716294527
aa(lp672
F0.01187667716294527
aaa(lp673
(lp674
F0.011749520897865295
aa(lp675
F0.011749520897865295
aaa(lp676
(lp677
F0.011733310297131538
aa(lp678
F0.011733310297131538
aaa(lp679
(lp680
F0.011778167448937893
aa(lp681
F0.011778167448937893
aaa(lp682
(lp683
F0.011839202605187893
aa(lp684
F0.011839202605187893
aaa(lp685
(lp686
F0.011883635073900223
aa(lp687
F0.011883635073900223
aaa(lp688
(lp689
F0.011895657517015934
aa(lp690
F0.011895657517015934
aaa(lp691
(lp692
F0.011874295771121979
aa(lp693
F0.011874295771121979
aaa(lp694
(lp695
F0.011830938048660755
aa(lp696
F0.011830938048660755
aaa(lp697
(lp698
F0.011783596128225327
aa(lp699
F0.011783596128225327
aaa(lp700
(lp701
F0.011751517653465271
aa(lp702
F0.011751517653465271
aaa(lp703
(lp704
F0.011749898083508015
aa(lp705
F0.011749898083508015
aaa(lp706
(lp707
F0.011785813607275486
aa(lp708
F0.011785813607275486
aaa(lp709
(lp710
F0.011857438832521439
aa(lp711
F0.011857438832521439
aaa(lp712
(lp713
F0.011953819543123245
aa(lp714
F0.011953819543123245
aaa(lp715
(lp716
F0.012058284133672714
aa(lp717
F0.012058284133672714
aaa(lp718
(lp719
F0.012151779606938362
aa(lp720
F0.012151779606938362
aaa(lp721
(lp722
F0.012218334712088108
aa(lp723
F0.012218334712088108
aaa(lp724
(lp725
F0.012247826904058456
aa(lp726
F0.012247826904058456
aaa(lp727
(lp728
F0.012238899245858192
aa(lp729
F0.012238899245858192
aaa(lp730
(lp731
F0.012195073999464512
aa(lp732
F0.012195073999464512
aaa(lp733
(lp734
F0.012126871384680271
aa(lp735
F0.012126871384680271
aaa(lp736
(lp737
F0.01204717718064785
aa(lp738
F0.01204717718064785
aaa(lp739
(lp740
F0.011966959573328495
aa(lp741
F0.011966959573328495
aaa(lp742
(lp743
F0.011896329931914806
aa(lp744
F0.011896329931914806
aaa(lp745
(lp746
F0.011840633116662502
aa(lp747
F0.011840633116662502
aaa(lp748
(lp749
F0.011801124550402164
aa(lp750
F0.011801124550402164
aaa(lp751
(lp752
F0.011775863356888294
aa(lp753
F0.011775863356888294
aaa(lp754
(lp755
F0.011761250905692577
aa(lp756
F0.011761250905692577
aaa(lp757
(lp758
F0.01175354141741991
aa(lp759
F0.01175354141741991
aaa(lp760
(lp761
F0.011750321835279465
aa(lp762
F0.011750321835279465
aaa(lp763
(lp764
F0.011750583536922932
aa(lp765
F0.011750583536922932
aaa(lp766
(lp767
F0.011754445731639862
aa(lp768
F0.011754445731639862
aaa(lp769
(lp770
F0.011763118207454681
aa(lp771
F0.011763118207454681
aaa(lp772
(lp773
F0.011777394451200962
aa(lp774
F0.011777394451200962
aaa(lp775
(lp776
F0.011797874234616756
aa(lp777
F0.011797874234616756
aaa(lp778
(lp779
F0.011822653003036976
aa(lp780
F0.011822653003036976
aaa(lp781
(lp782
F0.011849245987832546
aa(lp783
F0.011849245987832546
aaa(lp784
(lp785
F0.01187419518828392
aa(lp786
F0.01187419518828392
aaa(lp787
(lp788
F0.011893235146999359
aa(lp789
F0.011893235146999359
aaa(lp790
(lp791
F0.011904959566891193
aa(lp792
F0.011904959566891193
aaa(lp793
(lp794
F0.011906738393008709
aa(lp795
F0.011906738393008709
aaa(lp796
(lp797
F0.011899048462510109
aa(lp798
F0.011899048462510109
aaa(lp799
(lp800
F0.011883334256708622
aa(lp801
F0.011883334256708622
aaa(lp802
(lp803
F0.0118616484105587
aa(lp804
F0.0118616484105587
aaa(lp805
(lp806
F0.01183825172483921
aa(lp807
F0.01183825172483921
aaa(lp808
(lp809
F0.011815213598310947
aa(lp810
F0.011815213598310947
aaa(lp811
(lp812
F0.01179435569792986
aa(lp813
F0.01179435569792986
aaa(lp814
(lp815
F0.011777088046073914
aa(lp816
F0.011777088046073914
aaa(lp817
(lp818
F0.01176385022699833
aa(lp819
F0.01176385022699833
aaa(lp820
(lp821
F0.011754389852285385
aa(lp822
F0.011754389852285385
aaa(lp823
(lp824
F0.011748740449547768
aa(lp825
F0.011748740449547768
aaa(lp826
(lp827
F0.011746671050786972
aa(lp828
F0.011746671050786972
aaa(lp829
(lp830
F0.011747605167329311
aa(lp831
F0.011747605167329311
aaa(lp832
(lp833
F0.01175136398524046
aa(lp834
F0.01175136398524046
aaa(lp835
(lp836
F0.011758214794099331
aa(lp837
F0.011758214794099331
aaa(lp838
(lp839
F0.011765934526920319
aa(lp840
F0.011765934526920319
aaa(lp841
(lp842
F0.011773585341870785
aa(lp843
F0.011773585341870785
aaa(lp844
(lp845
F0.011779531836509705
aa(lp846
F0.011779531836509705
aaa(lp847
(lp848
F0.011782635934650898
aa(lp849
F0.011782635934650898
aaa(lp850
(lp851
F0.011782612651586533
aa(lp852
F0.011782612651586533
aaa(lp853
(lp854
F0.011778713203966618
aa(lp855
F0.011778713203966618
aaa(lp856
(lp857
F0.011772161349654198
aa(lp858
F0.011772161349654198
aaa(lp859
(lp860
F0.011763056740164757
aa(lp861
F0.011763056740164757
aaa(lp862
(lp863
F0.011752685531973839
aa(lp864
F0.011752685531973839
aaa(lp865
(lp866
F0.011740628629922867
aa(lp867
F0.011740628629922867
aaa(lp868
(lp869
F0.011728347279131413
aa(lp870
F0.011728347279131413
aaa(lp871
(lp872
F0.011717131361365318
aa(lp873
F0.011717131361365318
aaa(lp874
(lp875
F0.011708038859069347
aa(lp876
F0.011708038859069347
aaa(lp877
(lp878
F0.011700821109116077
aa(lp879
F0.011700821109116077
aaa(lp880
(lp881
F0.011695876717567444
aa(lp882
F0.011695876717567444
aaa(lp883
(lp884
F0.011693216860294342
aa(lp885
F0.011693216860294342
aaa(lp886
(lp887
F0.01169249601662159
aa(lp888
F0.01169249601662159
aaa(lp889
(lp890
F0.011692846193909645
aa(lp891
F0.011692846193909645
aaa(lp892
(lp893
F0.011694328859448433
aa(lp894
F0.011694328859448433
aaa(lp895
(lp896
F0.011695570312440395
aa(lp897
F0.011695570312440395
aaa(lp898
(lp899
F0.011696256697177887
aa(lp900
F0.011696256697177887
aaa(lp901
(lp902
F0.011694501154124737
aa(lp903
F0.011694501154124737
aaaa.