(lp0
(lp1
(lp2
(lp3
F0.0194160807877779
aa(lp4
F0.0194160807877779
aaa(lp5
(lp6
F0.020047884434461594
aa(lp7
F0.020047884434461594
aaa(lp8
(lp9
F0.01920904964208603
aa(lp10
F0.01920904964208603
aaa(lp11
(lp12
F0.01885395310819149
aa(lp13
F0.01885395310819149
aaa(lp14
(lp15
F0.01931779645383358
aa(lp16
F0.01931779645383358
aaa(lp17
(lp18
F0.019146282225847244
aa(lp19
F0.019146282225847244
aaa(lp20
(lp21
F0.018749700859189034
aa(lp22
F0.018749700859189034
aaa(lp23
(lp24
F0.01876181550323963
aa(lp25
F0.01876181550323963
aaa(lp26
(lp27
F0.018818963319063187
aa(lp28
F0.018818963319063187
aaa(lp29
(lp30
F0.018918665125966072
aa(lp31
F0.018918665125966072
aaa(lp32
(lp33
F0.018666718155145645
aa(lp34
F0.018666718155145645
aaa(lp35
(lp36
F0.018533717840909958
aa(lp37
F0.018533717840909958
aaa(lp38
(lp39
F0.018472641706466675
aa(lp40
F0.018472641706466675
aaa(lp41
(lp42
F0.018571294844150543
aa(lp43
F0.018571294844150543
aaa(lp44
(lp45
F0.018591012805700302
aa(lp46
F0.018591012805700302
aaa(lp47
(lp48
F0.018427668139338493
aa(lp49
F0.018427668139338493
aaa(lp50
(lp51
F0.01833963580429554
aa(lp52
F0.01833963580429554
aaa(lp53
(lp54
F0.018342815339565277
aa(lp55
F0.018342815339565277
aaa(lp56
(lp57
F0.018382465466856956
aa(lp58
F0.018382465466856956
aaa(lp59
(lp60
F0.018285071477293968
aa(lp61
F0.018285071477293968
aaa(lp62
(lp63
F0.01822146587073803
aa(lp64
F0.01822146587073803
aaa(lp65
(lp66
F0.018080830574035645
aa(lp67
F0.018080830574035645
aaa(lp68
(lp69
F0.018012670800089836
aa(lp70
F0.018012670800089836
aaa(lp71
(lp72
F0.01808932237327099
aa(lp73
F0.01808932237327099
aaa(lp74
(lp75
F0.0179159976541996
aa(lp76
F0.0179159976541996
aaa(lp77
(lp78
F0.017888668924570084
aa(lp79
F0.017888668924570084
aaa(lp80
(lp81
F0.017804158851504326
aa(lp82
F0.017804158851504326
aaa(lp83
(lp84
F0.017812183126807213
aa(lp85
F0.017812183126807213
aaa(lp86
(lp87
F0.017737334594130516
aa(lp88
F0.017737334594130516
aaa(lp89
(lp90
F0.017694244161248207
aa(lp91
F0.017694244161248207
aaa(lp92
(lp93
F0.01760130189359188
aa(lp94
F0.01760130189359188
aaa(lp95
(lp96
F0.017589282244443893
aa(lp97
F0.017589282244443893
aaa(lp98
(lp99
F0.01752922311425209
aa(lp100
F0.01752922311425209
aaa(lp101
(lp102
F0.01750558614730835
aa(lp103
F0.01750558614730835
aaa(lp104
(lp105
F0.017422648146748543
aa(lp106
F0.017422648146748543
aaa(lp107
(lp108
F0.017363717779517174
aa(lp109
F0.017363717779517174
aaa(lp110
(lp111
F0.01723097264766693
aa(lp112
F0.01723097264766693
aaa(lp113
(lp114
F0.017141161486506462
aa(lp115
F0.017141161486506462
aaa(lp116
(lp117
F0.017150642350316048
aa(lp118
F0.017150642350316048
aaa(lp119
(lp120
F0.017081689089536667
aa(lp121
F0.017081689089536667
aaa(lp122
(lp123
F0.017105858772993088
aa(lp124
F0.017105858772993088
aaa(lp125
(lp126
F0.016897430643439293
aa(lp127
F0.016897430643439293
aaa(lp128
(lp129
F0.016825074329972267
aa(lp130
F0.016825074329972267
aaa(lp131
(lp132
F0.016797637566924095
aa(lp133
F0.016797637566924095
aaa(lp134
(lp135
F0.0167186688631773
aa(lp136
F0.0167186688631773
aaa(lp137
(lp138
F0.016534755006432533
aa(lp139
F0.016534755006432533
aaa(lp140
(lp141
F0.01652507111430168
aa(lp142
F0.01652507111430168
aaa(lp143
(lp144
F0.016451355069875717
aa(lp145
F0.016451355069875717
aaa(lp146
(lp147
F0.01630781963467598
aa(lp148
F0.01630781963467598
aaa(lp149
(lp150
F0.016225172206759453
aa(lp151
F0.016225172206759453
aaa(lp152
(lp153
F0.016168134286999702
aa(lp154
F0.016168134286999702
aaa(lp155
(lp156
F0.016098065301775932
aa(lp157
F0.016098065301775932
aaa(lp158
(lp159
F0.015906771644949913
aa(lp160
F0.015906771644949913
aaa(lp161
(lp162
F0.015908218920230865
aa(lp163
F0.015908218920230865
aaa(lp164
(lp165
F0.015737442299723625
aa(lp166
F0.015737442299723625
aaa(lp167
(lp168
F0.01556415855884552
aa(lp169
F0.01556415855884552
aaa(lp170
(lp171
F0.015473352745175362
aa(lp172
F0.015473352745175362
aaa(lp173
(lp174
F0.015381553210318089
aa(lp175
F0.015381553210318089
aaa(lp176
(lp177
F0.015280422754585743
aa(lp178
F0.015280422754585743
aaa(lp179
(lp180
F0.015199491754174232
aa(lp181
F0.015199491754174232
aaa(lp182
(lp183
F0.015012814663350582
aa(lp184
F0.015012814663350582
aaa(lp185
(lp186
F0.014968184754252434
aa(lp187
F0.014968184754252434
aaa(lp188
(lp189
F0.014783201739192009
aa(lp190
F0.014783201739192009
aaa(lp191
(lp192
F0.014599277637898922
aa(lp193
F0.014599277637898922
aaa(lp194
(lp195
F0.014459933154284954
aa(lp196
F0.014459933154284954
aaa(lp197
(lp198
F0.014337553642690182
aa(lp199
F0.014337553642690182
aaa(lp200
(lp201
F0.01426729653030634
aa(lp202
F0.01426729653030634
aaa(lp203
(lp204
F0.014022061601281166
aa(lp205
F0.014022061601281166
aaa(lp206
(lp207
F0.013844089582562447
aa(lp208
F0.013844089582562447
aaa(lp209
(lp210
F0.013695512898266315
aa(lp211
F0.013695512898266315
aaa(lp212
(lp213
F0.013569637201726437
aa(lp214
F0.013569637201726437
aaa(lp215
(lp216
F0.013357573188841343
aa(lp217
F0.013357573188841343
aaa(lp218
(lp219
F0.013193943537771702
aa(lp220
F0.013193943537771702
aaa(lp221
(lp222
F0.013074148446321487
aa(lp223
F0.013074148446321487
aaa(lp224
(lp225
F0.01286284625530243
aa(lp226
F0.01286284625530243
aaa(lp227
(lp228
F0.012766209430992603
aa(lp229
F0.012766209430992603
aaa(lp230
(lp231
F0.012543992139399052
aa(lp232
F0.012543992139399052
aaa(lp233
(lp234
F0.012311878614127636
aa(lp235
F0.012311878614127636
aaa(lp236
(lp237
F0.012103297747671604
aa(lp238
F0.012103297747671604
aaa(lp239
(lp240
F0.012031217105686665
aa(lp241
F0.012031217105686665
aaa(lp242
(lp243
F0.011837114579975605
aa(lp244
F0.011837114579975605
aaa(lp245
(lp246
F0.011740260757505894
aa(lp247
F0.011740260757505894
aaa(lp248
(lp249
F0.011491606011986732
aa(lp250
F0.011491606011986732
aaa(lp251
(lp252
F0.011275072582066059
aa(lp253
F0.011275072582066059
aaa(lp254
(lp255
F0.011131534352898598
aa(lp256
F0.011131534352898598
aaa(lp257
(lp258
F0.010863549076020718
aa(lp259
F0.010863549076020718
aaa(lp260
(lp261
F0.010716402903199196
aa(lp262
F0.010716402903199196
aaa(lp263
(lp264
F0.01056799665093422
aa(lp265
F0.01056799665093422
aaa(lp266
(lp267
F0.010297434404492378
aa(lp268
F0.010297434404492378
aaa(lp269
(lp270
F0.010108658112585545
aa(lp271
F0.010108658112585545
aaa(lp272
(lp273
F0.010068495757877827
aa(lp274
F0.010068495757877827
aaa(lp275
(lp276
F0.010120159015059471
aa(lp277
F0.010120159015059471
aaa(lp278
(lp279
F0.011028092354536057
aa(lp280
F0.011028092354536057
aaa(lp281
(lp282
F0.010133123025298119
aa(lp283
F0.010133123025298119
aaa(lp284
(lp285
F0.009347964078187943
aa(lp286
F0.009347964078187943
aaa(lp287
(lp288
F0.009960394352674484
aa(lp289
F0.009960394352674484
aaa(lp290
(lp291
F0.009157427586615086
aa(lp292
F0.009157427586615086
aaa(lp293
(lp294
F0.00943736918270588
aa(lp295
F0.00943736918270588
aaa(lp296
(lp297
F0.009117428213357925
aa(lp298
F0.009117428213357925
aaa(lp299
(lp300
F0.008893284946680069
aa(lp301
F0.008893284946680069
aaaa(lp302
(lp303
(lp304
F0.01256591733545065
aa(lp305
F0.01256591733545065
aaa(lp306
(lp307
F0.012160979211330414
aa(lp308
F0.012160979211330414
aaa(lp309
(lp310
F0.012559119611978531
aa(lp311
F0.012559119611978531
aaa(lp312
(lp313
F0.013557234779000282
aa(lp314
F0.013557234779000282
aaa(lp315
(lp316
F0.01338653638958931
aa(lp317
F0.01338653638958931
aaa(lp318
(lp319
F0.01264322828501463
aa(lp320
F0.01264322828501463
aaa(lp321
(lp322
F0.012227720580995083
aa(lp323
F0.012227720580995083
aaa(lp324
(lp325
F0.012195596471428871
aa(lp326
F0.012195596471428871
aaa(lp327
(lp328
F0.01219959743320942
aa(lp329
F0.01219959743320942
aaa(lp330
(lp331
F0.012169286608695984
aa(lp332
F0.012169286608695984
aaa(lp333
(lp334
F0.012261183001101017
aa(lp335
F0.012261183001101017
aaa(lp336
(lp337
F0.0125315235927701
aa(lp338
F0.0125315235927701
aaa(lp339
(lp340
F0.012789987958967686
aa(lp341
F0.012789987958967686
aaa(lp342
(lp343
F0.012814675457775593
aa(lp344
F0.012814675457775593
aaa(lp345
(lp346
F0.012604311108589172
aa(lp347
F0.012604311108589172
aaa(lp348
(lp349
F0.012336223386228085
aa(lp350
F0.012336223386228085
aaa(lp351
(lp352
F0.012163924053311348
aa(lp353
F0.012163924053311348
aaa(lp354
(lp355
F0.01209978386759758
aa(lp356
F0.01209978386759758
aaa(lp357
(lp358
F0.012084510177373886
aa(lp359
F0.012084510177373886
aaa(lp360
(lp361
F0.012101835571229458
aa(lp362
F0.012101835571229458
aaa(lp363
(lp364
F0.012185405008494854
aa(lp365
F0.012185405008494854
aaa(lp366
(lp367
F0.012332153506577015
aa(lp368
F0.012332153506577015
aaa(lp369
(lp370
F0.012459459714591503
aa(lp371
F0.012459459714591503
aaa(lp372
(lp373
F0.012468477711081505
aa(lp374
F0.012468477711081505
aaa(lp375
(lp376
F0.012353622354567051
aa(lp377
F0.012353622354567051
aaa(lp378
(lp379
F0.012208417057991028
aa(lp380
F0.012208417057991028
aaa(lp381
(lp382
F0.012110168114304543
aa(lp383
F0.012110168114304543
aaa(lp384
(lp385
F0.012074273079633713
aa(lp386
F0.012074273079633713
aaa(lp387
(lp388
F0.012081841938197613
aa(lp389
F0.012081841938197613
aaa(lp390
(lp391
F0.012137077748775482
aa(lp392
F0.012137077748775482
aaa(lp393
(lp394
F0.01223860215395689
aa(lp395
F0.01223860215395689
aaa(lp396
(lp397
F0.012328004464507103
aa(lp398
F0.012328004464507103
aaa(lp399
(lp400
F0.012339314445853233
aa(lp401
F0.012339314445853233
aaa(lp402
(lp403
F0.01225312054157257
aa(lp404
F0.01225312054157257
aaa(lp405
(lp406
F0.012148295529186726
aa(lp407
F0.012148295529186726
aaa(lp408
(lp409
F0.012084919027984142
aa(lp410
F0.012084919027984142
aaa(lp411
(lp412
F0.012074480764567852
aa(lp413
F0.012074480764567852
aaa(lp414
(lp415
F0.012114753015339375
aa(lp416
F0.012114753015339375
aaa(lp417
(lp418
F0.012188439257442951
aa(lp419
F0.012188439257442951
aaa(lp420
(lp421
F0.012239520438015461
aa(lp422
F0.012239520438015461
aaa(lp423
(lp424
F0.012214267626404762
aa(lp425
F0.012214267626404762
aaa(lp426
(lp427
F0.012131590396165848
aa(lp428
F0.012131590396165848
aaa(lp429
(lp430
F0.012060587294399738
aa(lp431
F0.012060587294399738
aaa(lp432
(lp433
F0.012041005305945873
aa(lp434
F0.012041005305945873
aaa(lp435
(lp436
F0.012067806906998158
aa(lp437
F0.012067806906998158
aaa(lp438
(lp439
F0.012129009701311588
aa(lp440
F0.012129009701311588
aaa(lp441
(lp442
F0.012150264345109463
aa(lp443
F0.012150264345109463
aaa(lp444
(lp445
F0.012099936604499817
aa(lp446
F0.012099936604499817
aaa(lp447
(lp448
F0.012020145542919636
aa(lp449
F0.012020145542919636
aaa(lp450
(lp451
F0.011996310204267502
aa(lp452
F0.011996310204267502
aaa(lp453
(lp454
F0.012030488811433315
aa(lp455
F0.012030488811433315
aaa(lp456
(lp457
F0.012075120583176613
aa(lp458
F0.012075120583176613
aaa(lp459
(lp460
F0.012051151134073734
aa(lp461
F0.012051151134073734
aaa(lp462
(lp463
F0.011995688080787659
aa(lp464
F0.011995688080787659
aaa(lp465
(lp466
F0.011957844719290733
aa(lp467
F0.011957844719290733
aaa(lp468
(lp469
F0.011972622945904732
aa(lp470
F0.011972622945904732
aaa(lp471
(lp472
F0.012022459879517555
aa(lp473
F0.012022459879517555
aaa(lp474
(lp475
F0.012024973519146442
aa(lp476
F0.012024973519146442
aaa(lp477
(lp478
F0.011936194263398647
aa(lp479
F0.011936194263398647
aaa(lp480
(lp481
F0.011912944726645947
aa(lp482
F0.011912944726645947
aaa(lp483
(lp484
F0.011974163353443146
aa(lp485
F0.011974163353443146
aaa(lp486
(lp487
F0.011970903724431992
aa(lp488
F0.011970903724431992
aaa(lp489
(lp490
F0.011916675604879856
aa(lp491
F0.011916675604879856
aaa(lp492
(lp493
F0.011913695372641087
aa(lp494
F0.011913695372641087
aaa(lp495
(lp496
F0.011948104947805405
aa(lp497
F0.011948104947805405
aaa(lp498
(lp499
F0.011920686811208725
aa(lp500
F0.011920686811208725
aaa(lp501
(lp502
F0.011883093975484371
aa(lp503
F0.011883093975484371
aaa(lp504
(lp505
F0.011876649223268032
aa(lp506
F0.011876649223268032
aaa(lp507
(lp508
F0.01186604518443346
aa(lp509
F0.01186604518443346
aaa(lp510
(lp511
F0.011838830076158047
aa(lp512
F0.011838830076158047
aaa(lp513
(lp514
F0.011822332628071308
aa(lp515
F0.011822332628071308
aaa(lp516
(lp517
F0.011812624521553516
aa(lp518
F0.011812624521553516
aaa(lp519
(lp520
F0.011812991462647915
aa(lp521
F0.011812991462647915
aaa(lp522
(lp523
F0.011775055900216103
aa(lp524
F0.011775055900216103
aaa(lp525
(lp526
F0.011733654886484146
aa(lp527
F0.011733654886484146
aaa(lp528
(lp529
F0.011826696805655956
aa(lp530
F0.011826696805655956
aaa(lp531
(lp532
F0.011605080217123032
aa(lp533
F0.011605080217123032
aaa(lp534
(lp535
F0.011962305754423141
aa(lp536
F0.011962305754423141
aaa(lp537
(lp538
F0.011524997651576996
aa(lp539
F0.011524997651576996
aaa(lp540
(lp541
F0.012056414969265461
aa(lp542
F0.012056414969265461
aaa(lp543
(lp544
F0.011502783745527267
aa(lp545
F0.011502783745527267
aaa(lp546
(lp547
F0.012022173963487148
aa(lp548
F0.012022173963487148
aaa(lp549
(lp550
F0.011564529500901699
aa(lp551
F0.011564529500901699
aaa(lp552
(lp553
F0.011845617555081844
aa(lp554
F0.011845617555081844
aaa(lp555
(lp556
F0.011691520921885967
aa(lp557
F0.011691520921885967
aaa(lp558
(lp559
F0.011744544841349125
aa(lp560
F0.011744544841349125
aaa(lp561
(lp562
F0.011800670996308327
aa(lp563
F0.011800670996308327
aaa(lp564
(lp565
F0.01172562874853611
aa(lp566
F0.01172562874853611
aaa(lp567
(lp568
F0.011954443529248238
aa(lp569
F0.011954443529248238
aaa(lp570
(lp571
F0.011608833447098732
aa(lp572
F0.011608833447098732
aaa(lp573
(lp574
F0.012889145873486996
aa(lp575
F0.012889145873486996
aaa(lp576
(lp577
F0.0120229572057724
aa(lp578
F0.0120229572057724
aaa(lp579
(lp580
F0.013291079550981522
aa(lp581
F0.013291079550981522
aaa(lp582
(lp583
F0.012205168604850769
aa(lp584
F0.012205168604850769
aaa(lp585
(lp586
F0.011739064939320087
aa(lp587
F0.011739064939320087
aaa(lp588
(lp589
F0.0121299521997571
aa(lp590
F0.0121299521997571
aaa(lp591
(lp592
F0.013121413998305798
aa(lp593
F0.013121413998305798
aaa(lp594
(lp595
F0.011618098244071007
aa(lp596
F0.011618098244071007
aaa(lp597
(lp598
F0.011639470234513283
aa(lp599
F0.011639470234513283
aaa(lp600
(lp601
F0.013153712265193462
aa(lp602
F0.013153712265193462
aaaa(lp603
(lp604
(lp605
F0.01256591733545065
aa(lp606
F0.01256591733545065
aaa(lp607
(lp608
F0.012160979211330414
aa(lp609
F0.012160979211330414
aaa(lp610
(lp611
F0.012559119611978531
aa(lp612
F0.012559119611978531
aaa(lp613
(lp614
F0.013557234779000282
aa(lp615
F0.013557234779000282
aaa(lp616
(lp617
F0.01338653638958931
aa(lp618
F0.01338653638958931
aaa(lp619
(lp620
F0.01264322828501463
aa(lp621
F0.01264322828501463
aaa(lp622
(lp623
F0.012227720580995083
aa(lp624
F0.012227720580995083
aaa(lp625
(lp626
F0.012195596471428871
aa(lp627
F0.012195596471428871
aaa(lp628
(lp629
F0.01219959743320942
aa(lp630
F0.01219959743320942
aaa(lp631
(lp632
F0.012169286608695984
aa(lp633
F0.012169286608695984
aaa(lp634
(lp635
F0.012261183001101017
aa(lp636
F0.012261183001101017
aaa(lp637
(lp638
F0.0125315235927701
aa(lp639
F0.0125315235927701
aaa(lp640
(lp641
F0.012789987958967686
aa(lp642
F0.012789987958967686
aaa(lp643
(lp644
F0.012814675457775593
aa(lp645
F0.012814675457775593
aaa(lp646
(lp647
F0.012604311108589172
aa(lp648
F0.012604311108589172
aaa(lp649
(lp650
F0.012336223386228085
aa(lp651
F0.012336223386228085
aaa(lp652
(lp653
F0.012163924053311348
aa(lp654
F0.012163924053311348
aaa(lp655
(lp656
F0.01209978386759758
aa(lp657
F0.01209978386759758
aaa(lp658
(lp659
F0.012084510177373886
aa(lp660
F0.012084510177373886
aaa(lp661
(lp662
F0.012101835571229458
aa(lp663
F0.012101835571229458
aaa(lp664
(lp665
F0.012185405008494854
aa(lp666
F0.012185405008494854
aaa(lp667
(lp668
F0.012332153506577015
aa(lp669
F0.012332153506577015
aaa(lp670
(lp671
F0.012459459714591503
aa(lp672
F0.012459459714591503
aaa(lp673
(lp674
F0.012468477711081505
aa(lp675
F0.012468477711081505
aaa(lp676
(lp677
F0.012353622354567051
aa(lp678
F0.012353622354567051
aaa(lp679
(lp680
F0.012208417057991028
aa(lp681
F0.012208417057991028
aaa(lp682
(lp683
F0.012110168114304543
aa(lp684
F0.012110168114304543
aaa(lp685
(lp686
F0.012074273079633713
aa(lp687
F0.012074273079633713
aaa(lp688
(lp689
F0.012081841938197613
aa(lp690
F0.012081841938197613
aaa(lp691
(lp692
F0.012137077748775482
aa(lp693
F0.012137077748775482
aaa(lp694
(lp695
F0.01223860215395689
aa(lp696
F0.01223860215395689
aaa(lp697
(lp698
F0.012328004464507103
aa(lp699
F0.012328004464507103
aaa(lp700
(lp701
F0.012339314445853233
aa(lp702
F0.012339314445853233
aaa(lp703
(lp704
F0.01225312054157257
aa(lp705
F0.01225312054157257
aaa(lp706
(lp707
F0.012148295529186726
aa(lp708
F0.012148295529186726
aaa(lp709
(lp710
F0.012084919027984142
aa(lp711
F0.012084919027984142
aaa(lp712
(lp713
F0.012074480764567852
aa(lp714
F0.012074480764567852
aaa(lp715
(lp716
F0.012114753015339375
aa(lp717
F0.012114753015339375
aaa(lp718
(lp719
F0.012188439257442951
aa(lp720
F0.012188439257442951
aaa(lp721
(lp722
F0.012239520438015461
aa(lp723
F0.012239520438015461
aaa(lp724
(lp725
F0.012214267626404762
aa(lp726
F0.012214267626404762
aaa(lp727
(lp728
F0.012131590396165848
aa(lp729
F0.012131590396165848
aaa(lp730
(lp731
F0.012060587294399738
aa(lp732
F0.012060587294399738
aaa(lp733
(lp734
F0.012041005305945873
aa(lp735
F0.012041005305945873
aaa(lp736
(lp737
F0.012067806906998158
aa(lp738
F0.012067806906998158
aaa(lp739
(lp740
F0.012129009701311588
aa(lp741
F0.012129009701311588
aaa(lp742
(lp743
F0.012150264345109463
aa(lp744
F0.012150264345109463
aaa(lp745
(lp746
F0.012099936604499817
aa(lp747
F0.012099936604499817
aaa(lp748
(lp749
F0.012020145542919636
aa(lp750
F0.012020145542919636
aaa(lp751
(lp752
F0.011996310204267502
aa(lp753
F0.011996310204267502
aaa(lp754
(lp755
F0.012030488811433315
aa(lp756
F0.012030488811433315
aaa(lp757
(lp758
F0.012075120583176613
aa(lp759
F0.012075120583176613
aaa(lp760
(lp761
F0.012051151134073734
aa(lp762
F0.012051151134073734
aaa(lp763
(lp764
F0.011995688080787659
aa(lp765
F0.011995688080787659
aaa(lp766
(lp767
F0.011957844719290733
aa(lp768
F0.011957844719290733
aaa(lp769
(lp770
F0.011972622945904732
aa(lp771
F0.011972622945904732
aaa(lp772
(lp773
F0.012022459879517555
aa(lp774
F0.012022459879517555
aaa(lp775
(lp776
F0.012024973519146442
aa(lp777
F0.012024973519146442
aaa(lp778
(lp779
F0.011936194263398647
aa(lp780
F0.011936194263398647
aaa(lp781
(lp782
F0.011912944726645947
aa(lp783
F0.011912944726645947
aaa(lp784
(lp785
F0.011974163353443146
aa(lp786
F0.011974163353443146
aaa(lp787
(lp788
F0.011970903724431992
aa(lp789
F0.011970903724431992
aaa(lp790
(lp791
F0.011916675604879856
aa(lp792
F0.011916675604879856
aaa(lp793
(lp794
F0.011913695372641087
aa(lp795
F0.011913695372641087
aaa(lp796
(lp797
F0.011948104947805405
aa(lp798
F0.011948104947805405
aaa(lp799
(lp800
F0.011920686811208725
aa(lp801
F0.011920686811208725
aaa(lp802
(lp803
F0.011883093975484371
aa(lp804
F0.011883093975484371
aaa(lp805
(lp806
F0.011876649223268032
aa(lp807
F0.011876649223268032
aaa(lp808
(lp809
F0.01186604518443346
aa(lp810
F0.01186604518443346
aaa(lp811
(lp812
F0.011838830076158047
aa(lp813
F0.011838830076158047
aaa(lp814
(lp815
F0.011822332628071308
aa(lp816
F0.011822332628071308
aaa(lp817
(lp818
F0.011812624521553516
aa(lp819
F0.011812624521553516
aaa(lp820
(lp821
F0.011812991462647915
aa(lp822
F0.011812991462647915
aaa(lp823
(lp824
F0.011775055900216103
aa(lp825
F0.011775055900216103
aaa(lp826
(lp827
F0.011733654886484146
aa(lp828
F0.011733654886484146
aaa(lp829
(lp830
F0.011826696805655956
aa(lp831
F0.011826696805655956
aaa(lp832
(lp833
F0.011605080217123032
aa(lp834
F0.011605080217123032
aaa(lp835
(lp836
F0.011962305754423141
aa(lp837
F0.011962305754423141
aaa(lp838
(lp839
F0.011524997651576996
aa(lp840
F0.011524997651576996
aaa(lp841
(lp842
F0.012056414969265461
aa(lp843
F0.012056414969265461
aaa(lp844
(lp845
F0.011502783745527267
aa(lp846
F0.011502783745527267
aaa(lp847
(lp848
F0.012022173963487148
aa(lp849
F0.012022173963487148
aaa(lp850
(lp851
F0.011564529500901699
aa(lp852
F0.011564529500901699
aaa(lp853
(lp854
F0.011845617555081844
aa(lp855
F0.011845617555081844
aaa(lp856
(lp857
F0.011691520921885967
aa(lp858
F0.011691520921885967
aaa(lp859
(lp860
F0.011744544841349125
aa(lp861
F0.011744544841349125
aaa(lp862
(lp863
F0.011800670996308327
aa(lp864
F0.011800670996308327
aaa(lp865
(lp866
F0.01172562874853611
aa(lp867
F0.01172562874853611
aaa(lp868
(lp869
F0.011954443529248238
aa(lp870
F0.011954443529248238
aaa(lp871
(lp872
F0.011608833447098732
aa(lp873
F0.011608833447098732
aaa(lp874
(lp875
F0.012889145873486996
aa(lp876
F0.012889145873486996
aaa(lp877
(lp878
F0.0120229572057724
aa(lp879
F0.0120229572057724
aaa(lp880
(lp881
F0.013291079550981522
aa(lp882
F0.013291079550981522
aaa(lp883
(lp884
F0.012205168604850769
aa(lp885
F0.012205168604850769
aaa(lp886
(lp887
F0.011739064939320087
aa(lp888
F0.011739064939320087
aaa(lp889
(lp890
F0.0121299521997571
aa(lp891
F0.0121299521997571
aaa(lp892
(lp893
F0.013121413998305798
aa(lp894
F0.013121413998305798
aaa(lp895
(lp896
F0.011618098244071007
aa(lp897
F0.011618098244071007
aaa(lp898
(lp899
F0.011639470234513283
aa(lp900
F0.011639470234513283
aaa(lp901
(lp902
F0.013153712265193462
aa(lp903
F0.013153712265193462
aaaa.