(lp0
(lp1
(lp2
(lp3
F0.026112040504813194
aa(lp4
F0.026112040504813194
aaa(lp5
(lp6
F0.13943620026111603
aa(lp7
F0.13943620026111603
aaa(lp8
(lp9
F0.028350044041872025
aa(lp10
F0.028350044041872025
aaa(lp11
(lp12
F0.019108595326542854
aa(lp13
F0.019108595326542854
aaa(lp14
(lp15
F0.01913623884320259
aa(lp16
F0.01913623884320259
aaa(lp17
(lp18
F0.018915371969342232
aa(lp19
F0.018915371969342232
aaa(lp20
(lp21
F0.018916942179203033
aa(lp22
F0.018916942179203033
aaa(lp23
(lp24
F0.019036483019590378
aa(lp25
F0.019036483019590378
aaa(lp26
(lp27
F0.01895717903971672
aa(lp28
F0.01895717903971672
aaa(lp29
(lp30
F0.018874702975153923
aa(lp31
F0.018874702975153923
aaa(lp32
(lp33
F0.0190004613250494
aa(lp34
F0.0190004613250494
aaa(lp35
(lp36
F0.01899139955639839
aa(lp37
F0.01899139955639839
aaa(lp38
(lp39
F0.018868444487452507
aa(lp40
F0.018868444487452507
aaa(lp41
(lp42
F0.018867185339331627
aa(lp43
F0.018867185339331627
aaa(lp44
(lp45
F0.018940148875117302
aa(lp46
F0.018940148875117302
aaa(lp47
(lp48
F0.018882688134908676
aa(lp49
F0.018882688134908676
aaa(lp50
(lp51
F0.018821081146597862
aa(lp52
F0.018821081146597862
aaa(lp53
(lp54
F0.018856123089790344
aa(lp55
F0.018856123089790344
aaa(lp56
(lp57
F0.01884871907532215
aa(lp58
F0.01884871907532215
aaa(lp59
(lp60
F0.0187723059207201
aa(lp61
F0.0187723059207201
aaa(lp62
(lp63
F0.018750261515378952
aa(lp64
F0.018750261515378952
aaa(lp65
(lp66
F0.018767621368169785
aa(lp67
F0.018767621368169785
aaa(lp68
(lp69
F0.018713437020778656
aa(lp70
F0.018713437020778656
aaa(lp71
(lp72
F0.018674122169613838
aa(lp73
F0.018674122169613838
aaa(lp74
(lp75
F0.018687499687075615
aa(lp76
F0.018687499687075615
aaa(lp77
(lp78
F0.018659811466932297
aa(lp79
F0.018659811466932297
aaa(lp80
(lp81
F0.01861402951180935
aa(lp82
F0.01861402951180935
aaa(lp83
(lp84
F0.018610311672091484
aa(lp85
F0.018610311672091484
aaa(lp86
(lp87
F0.018588297069072723
aa(lp88
F0.018588297069072723
aaa(lp89
(lp90
F0.01855364441871643
aa(lp91
F0.01855364441871643
aaa(lp92
(lp93
F0.018546218052506447
aa(lp94
F0.018546218052506447
aaa(lp95
(lp96
F0.018518242985010147
aa(lp97
F0.018518242985010147
aaa(lp98
(lp99
F0.01848314143717289
aa(lp100
F0.01848314143717289
aaa(lp101
(lp102
F0.01847090572118759
aa(lp103
F0.01847090572118759
aaa(lp104
(lp105
F0.01843792386353016
aa(lp106
F0.01843792386353016
aaa(lp107
(lp108
F0.018408767879009247
aa(lp109
F0.018408767879009247
aaa(lp110
(lp111
F0.018386585637927055
aa(lp112
F0.018386585637927055
aaa(lp113
(lp114
F0.01834961026906967
aa(lp115
F0.01834961026906967
aaa(lp116
(lp117
F0.01833714358508587
aa(lp118
F0.01833714358508587
aaa(lp119
(lp120
F0.018293946981430054
aa(lp121
F0.018293946981430054
aaa(lp122
(lp123
F0.01826251670718193
aa(lp124
F0.01826251670718193
aaa(lp125
(lp126
F0.01823372021317482
aa(lp127
F0.01823372021317482
aaa(lp128
(lp129
F0.018195347860455513
aa(lp130
F0.018195347860455513
aaa(lp131
(lp132
F0.018166042864322662
aa(lp133
F0.018166042864322662
aaa(lp134
(lp135
F0.018113629892468452
aa(lp136
F0.018113629892468452
aaa(lp137
(lp138
F0.01809404231607914
aa(lp139
F0.01809404231607914
aaa(lp140
(lp141
F0.01802816055715084
aa(lp142
F0.01802816055715084
aaa(lp143
(lp144
F0.01799066551029682
aa(lp145
F0.01799066551029682
aaa(lp146
(lp147
F0.017935287207365036
aa(lp148
F0.017935287207365036
aaa(lp149
(lp150
F0.017888210713863373
aa(lp151
F0.017888210713863373
aaa(lp152
(lp153
F0.0178363099694252
aa(lp154
F0.0178363099694252
aaa(lp155
(lp156
F0.017777249217033386
aa(lp157
F0.017777249217033386
aaa(lp158
(lp159
F0.017717326059937477
aa(lp160
F0.017717326059937477
aaa(lp161
(lp162
F0.01765436679124832
aa(lp163
F0.01765436679124832
aaa(lp164
(lp165
F0.01756450906395912
aa(lp166
F0.01756450906395912
aaa(lp167
(lp168
F0.017505846917629242
aa(lp169
F0.017505846917629242
aaa(lp170
(lp171
F0.01745222508907318
aa(lp172
F0.01745222508907318
aaa(lp173
(lp174
F0.01732679456472397
aa(lp175
F0.01732679456472397
aaa(lp176
(lp177
F0.017210058867931366
aa(lp178
F0.017210058867931366
aaa(lp179
(lp180
F0.020064327865839005
aa(lp181
F0.020064327865839005
aaa(lp182
(lp183
F0.017168337479233742
aa(lp184
F0.017168337479233742
aaa(lp185
(lp186
F0.01974785514175892
aa(lp187
F0.01974785514175892
aaa(lp188
(lp189
F0.017306918278336525
aa(lp190
F0.017306918278336525
aaa(lp191
(lp192
F0.018043462187051773
aa(lp193
F0.018043462187051773
aaa(lp194
(lp195
F0.01841016300022602
aa(lp196
F0.01841016300022602
aaa(lp197
(lp198
F0.017430167645215988
aa(lp199
F0.017430167645215988
aaa(lp200
(lp201
F0.017499927431344986
aa(lp202
F0.017499927431344986
aaa(lp203
(lp204
F0.018033986911177635
aa(lp205
F0.018033986911177635
aaa(lp206
(lp207
F0.017554346472024918
aa(lp208
F0.017554346472024918
aaa(lp209
(lp210
F0.0171455480158329
aa(lp211
F0.0171455480158329
aaa(lp212
(lp213
F0.01733907125890255
aa(lp214
F0.01733907125890255
aaa(lp215
(lp216
F0.017284350469708443
aa(lp217
F0.017284350469708443
aaa(lp218
(lp219
F0.01692202500998974
aa(lp220
F0.01692202500998974
aaa(lp221
(lp222
F0.016881344839930534
aa(lp223
F0.016881344839930534
aaa(lp224
(lp225
F0.01705097034573555
aa(lp226
F0.01705097034573555
aaa(lp227
(lp228
F0.016746757552027702
aa(lp229
F0.016746757552027702
aaa(lp230
(lp231
F0.01657194271683693
aa(lp232
F0.01657194271683693
aaa(lp233
(lp234
F0.016655422747135162
aa(lp235
F0.016655422747135162
aaa(lp236
(lp237
F0.016439009457826614
aa(lp238
F0.016439009457826614
aaa(lp239
(lp240
F0.016250621527433395
aa(lp241
F0.016250621527433395
aaa(lp242
(lp243
F0.01633049175143242
aa(lp244
F0.01633049175143242
aaa(lp245
(lp246
F0.016029438003897667
aa(lp247
F0.016029438003897667
aaa(lp248
(lp249
F0.01603497564792633
aa(lp250
F0.01603497564792633
aaa(lp251
(lp252
F0.01587269827723503
aa(lp253
F0.01587269827723503
aaa(lp254
(lp255
F0.015702378004789352
aa(lp256
F0.015702378004789352
aaa(lp257
(lp258
F0.01566375233232975
aa(lp259
F0.01566375233232975
aaa(lp260
(lp261
F0.015405578538775444
aa(lp262
F0.015405578538775444
aaa(lp263
(lp264
F0.015394902788102627
aa(lp265
F0.015394902788102627
aaa(lp266
(lp267
F0.01511678658425808
aa(lp268
F0.01511678658425808
aaa(lp269
(lp270
F0.015064990147948265
aa(lp271
F0.015064990147948265
aaa(lp272
(lp273
F0.014826417900621891
aa(lp274
F0.014826417900621891
aaa(lp275
(lp276
F0.014684759080410004
aa(lp277
F0.014684759080410004
aaa(lp278
(lp279
F0.014606972225010395
aa(lp280
F0.014606972225010395
aaa(lp281
(lp282
F0.014270138926804066
aa(lp283
F0.014270138926804066
aaa(lp284
(lp285
F0.014199737459421158
aa(lp286
F0.014199737459421158
aaa(lp287
(lp288
F0.014079060405492783
aa(lp289
F0.014079060405492783
aaa(lp290
(lp291
F0.013768944889307022
aa(lp292
F0.013768944889307022
aaa(lp293
(lp294
F0.01350708119571209
aa(lp295
F0.01350708119571209
aaa(lp296
(lp297
F0.01336638256907463
aa(lp298
F0.01336638256907463
aaa(lp299
(lp300
F0.013312432914972305
aa(lp301
F0.013312432914972305
aaaa(lp302
(lp303
(lp304
F0.11885339021682739
aa(lp305
F0.11885339021682739
aaa(lp306
(lp307
F0.017438629642128944
aa(lp308
F0.017438629642128944
aaa(lp309
(lp310
F0.012930197641253471
aa(lp311
F0.012930197641253471
aaa(lp312
(lp313
F0.012996583245694637
aa(lp314
F0.012996583245694637
aaa(lp315
(lp316
F0.012352844700217247
aa(lp317
F0.012352844700217247
aaa(lp318
(lp319
F0.011908533982932568
aa(lp320
F0.011908533982932568
aaa(lp321
(lp322
F0.01185444463044405
aa(lp323
F0.01185444463044405
aaa(lp324
(lp325
F0.011922318488359451
aa(lp326
F0.011922318488359451
aaa(lp327
(lp328
F0.012206867337226868
aa(lp329
F0.012206867337226868
aaa(lp330
(lp331
F0.012683275155723095
aa(lp332
F0.012683275155723095
aaa(lp333
(lp334
F0.01268155686557293
aa(lp335
F0.01268155686557293
aaa(lp336
(lp337
F0.012324764393270016
aa(lp338
F0.012324764393270016
aaa(lp339
(lp340
F0.011998077854514122
aa(lp341
F0.011998077854514122
aaa(lp342
(lp343
F0.011888258159160614
aa(lp344
F0.011888258159160614
aaa(lp345
(lp346
F0.011941896751523018
aa(lp347
F0.011941896751523018
aaa(lp348
(lp349
F0.012162701226770878
aa(lp350
F0.012162701226770878
aaa(lp351
(lp352
F0.012443947605788708
aa(lp353
F0.012443947605788708
aaa(lp354
(lp355
F0.012486829422414303
aa(lp356
F0.012486829422414303
aaa(lp357
(lp358
F0.012239818461239338
aa(lp359
F0.012239818461239338
aaa(lp360
(lp361
F0.011968103237450123
aa(lp362
F0.011968103237450123
aaa(lp363
(lp364
F0.011863493360579014
aa(lp365
F0.011863493360579014
aaa(lp366
(lp367
F0.011916553601622581
aa(lp368
F0.011916553601622581
aaa(lp369
(lp370
F0.012108736671507359
aa(lp371
F0.012108736671507359
aaa(lp372
(lp373
F0.012278986163437366
aa(lp374
F0.012278986163437366
aaa(lp375
(lp376
F0.012213439680635929
aa(lp377
F0.012213439680635929
aaa(lp378
(lp379
F0.012014455161988735
aa(lp380
F0.012014455161988735
aaa(lp381
(lp382
F0.011898091062903404
aa(lp383
F0.011898091062903404
aaa(lp384
(lp385
F0.011902114376425743
aa(lp386
F0.011902114376425743
aaa(lp387
(lp388
F0.01200927421450615
aa(lp389
F0.01200927421450615
aaa(lp390
(lp391
F0.012124846689403057
aa(lp392
F0.012124846689403057
aaa(lp393
(lp394
F0.01209290698170662
aa(lp395
F0.01209290698170662
aaa(lp396
(lp397
F0.011948163621127605
aa(lp398
F0.011948163621127605
aaa(lp399
(lp400
F0.011862517334520817
aa(lp401
F0.011862517334520817
aaa(lp402
(lp403
F0.011891402304172516
aa(lp404
F0.011891402304172516
aaa(lp405
(lp406
F0.01200183853507042
aa(lp407
F0.01200183853507042
aaa(lp408
(lp409
F0.012053566053509712
aa(lp410
F0.012053566053509712
aaa(lp411
(lp412
F0.011955232359468937
aa(lp413
F0.011955232359468937
aaa(lp414
(lp415
F0.011868146248161793
aa(lp416
F0.011868146248161793
aaa(lp417
(lp418
F0.011867786757647991
aa(lp419
F0.011867786757647991
aaa(lp420
(lp421
F0.011958095245063305
aa(lp422
F0.011958095245063305
aaa(lp423
(lp424
F0.011944973841309547
aa(lp425
F0.011944973841309547
aaa(lp426
(lp427
F0.011839925311505795
aa(lp428
F0.011839925311505795
aaa(lp429
(lp430
F0.011729269288480282
aa(lp431
F0.011729269288480282
aaa(lp432
(lp433
F0.011792890727519989
aa(lp434
F0.011792890727519989
aaa(lp435
(lp436
F0.011918481439352036
aa(lp437
F0.011918481439352036
aaa(lp438
(lp439
F0.01176454871892929
aa(lp440
F0.01176454871892929
aaa(lp441
(lp442
F0.011666272766888142
aa(lp443
F0.011666272766888142
aaa(lp444
(lp445
F0.011738666333258152
aa(lp446
F0.011738666333258152
aaa(lp447
(lp448
F0.011770754121243954
aa(lp449
F0.011770754121243954
aaa(lp450
(lp451
F0.011611112393438816
aa(lp452
F0.011611112393438816
aaa(lp453
(lp454
F0.011650461703538895
aa(lp455
F0.011650461703538895
aaa(lp456
(lp457
F0.011691573075950146
aa(lp458
F0.011691573075950146
aaa(lp459
(lp460
F0.011601243168115616
aa(lp461
F0.011601243168115616
aaa(lp462
(lp463
F0.01165841519832611
aa(lp464
F0.01165841519832611
aaa(lp465
(lp466
F0.011661041527986526
aa(lp467
F0.011661041527986526
aaa(lp468
(lp469
F0.011461632326245308
aa(lp470
F0.011461632326245308
aaa(lp471
(lp472
F0.011730190366506577
aa(lp473
F0.011730190366506577
aaa(lp474
(lp475
F0.01202810276299715
aa(lp476
F0.01202810276299715
aaa(lp477
(lp478
F0.012678851373493671
aa(lp479
F0.012678851373493671
aaa(lp480
(lp481
F0.011585135012865067
aa(lp482
F0.011585135012865067
aaa(lp483
(lp484
F0.01492054108530283
aa(lp485
F0.01492054108530283
aaa(lp486
(lp487
F0.012043179012835026
aa(lp488
F0.012043179012835026
aaa(lp489
(lp490
F0.011633607558906078
aa(lp491
F0.011633607558906078
aaa(lp492
(lp493
F0.011803300119936466
aa(lp494
F0.011803300119936466
aaa(lp495
(lp496
F0.011521557345986366
aa(lp497
F0.011521557345986366
aaa(lp498
(lp499
F0.01232398021966219
aa(lp500
F0.01232398021966219
aaa(lp501
(lp502
F0.013088594190776348
aa(lp503
F0.013088594190776348
aaa(lp504
(lp505
F0.01250951923429966
aa(lp506
F0.01250951923429966
aaa(lp507
(lp508
F0.01171122957020998
aa(lp509
F0.01171122957020998
aaa(lp510
(lp511
F0.011577630415558815
aa(lp512
F0.011577630415558815
aaa(lp513
(lp514
F0.011599092744290829
aa(lp515
F0.011599092744290829
aaa(lp516
(lp517
F0.011584291234612465
aa(lp518
F0.011584291234612465
aaa(lp519
(lp520
F0.011975807137787342
aa(lp521
F0.011975807137787342
aaa(lp522
(lp523
F0.012378868646919727
aa(lp524
F0.012378868646919727
aaa(lp525
(lp526
F0.012052894569933414
aa(lp527
F0.012052894569933414
aaa(lp528
(lp529
F0.011665895581245422
aa(lp530
F0.011665895581245422
aaa(lp531
(lp532
F0.011605008505284786
aa(lp533
F0.011605008505284786
aaa(lp534
(lp535
F0.01158988755196333
aa(lp536
F0.01158988755196333
aaa(lp537
(lp538
F0.01180749200284481
aa(lp539
F0.01180749200284481
aaa(lp540
(lp541
F0.012144058011472225
aa(lp542
F0.012144058011472225
aaa(lp543
(lp544
F0.011764115653932095
aa(lp545
F0.011764115653932095
aaa(lp546
(lp547
F0.011587999761104584
aa(lp548
F0.011587999761104584
aaa(lp549
(lp550
F0.011586949229240417
aa(lp551
F0.011586949229240417
aaa(lp552
(lp553
F0.011816523969173431
aa(lp554
F0.011816523969173431
aaa(lp555
(lp556
F0.011975783854722977
aa(lp557
F0.011975783854722977
aaa(lp558
(lp559
F0.011631186120212078
aa(lp560
F0.011631186120212078
aaa(lp561
(lp562
F0.011627277359366417
aa(lp563
F0.011627277359366417
aaa(lp564
(lp565
F0.011749663390219212
aa(lp566
F0.011749663390219212
aaa(lp567
(lp568
F0.011950202286243439
aa(lp569
F0.011950202286243439
aaa(lp570
(lp571
F0.011664170771837234
aa(lp572
F0.011664170771837234
aaa(lp573
(lp574
F0.011700800620019436
aa(lp575
F0.011700800620019436
aaa(lp576
(lp577
F0.01207269448786974
aa(lp578
F0.01207269448786974
aaa(lp579
(lp580
F0.011809886433184147
aa(lp581
F0.011809886433184147
aaa(lp582
(lp583
F0.011868255212903023
aa(lp584
F0.011868255212903023
aaa(lp585
(lp586
F0.012215285561978817
aa(lp587
F0.012215285561978817
aaa(lp588
(lp589
F0.011962003074586391
aa(lp590
F0.011962003074586391
aaa(lp591
(lp592
F0.012024298310279846
aa(lp593
F0.012024298310279846
aaa(lp594
(lp595
F0.012187900021672249
aa(lp596
F0.012187900021672249
aaa(lp597
(lp598
F0.012252199463546276
aa(lp599
F0.012252199463546276
aaa(lp600
(lp601
F0.012767254374921322
aa(lp602
F0.012767254374921322
aaaa(lp603
(lp604
(lp605
F0.11885339021682739
aa(lp606
F0.11885339021682739
aaa(lp607
(lp608
F0.017438629642128944
aa(lp609
F0.017438629642128944
aaa(lp610
(lp611
F0.012930197641253471
aa(lp612
F0.012930197641253471
aaa(lp613
(lp614
F0.012996583245694637
aa(lp615
F0.012996583245694637
aaa(lp616
(lp617
F0.012352844700217247
aa(lp618
F0.012352844700217247
aaa(lp619
(lp620
F0.011908533982932568
aa(lp621
F0.011908533982932568
aaa(lp622
(lp623
F0.01185444463044405
aa(lp624
F0.01185444463044405
aaa(lp625
(lp626
F0.011922318488359451
aa(lp627
F0.011922318488359451
aaa(lp628
(lp629
F0.012206867337226868
aa(lp630
F0.012206867337226868
aaa(lp631
(lp632
F0.012683275155723095
aa(lp633
F0.012683275155723095
aaa(lp634
(lp635
F0.01268155686557293
aa(lp636
F0.01268155686557293
aaa(lp637
(lp638
F0.012324764393270016
aa(lp639
F0.012324764393270016
aaa(lp640
(lp641
F0.011998077854514122
aa(lp642
F0.011998077854514122
aaa(lp643
(lp644
F0.011888258159160614
aa(lp645
F0.011888258159160614
aaa(lp646
(lp647
F0.011941896751523018
aa(lp648
F0.011941896751523018
aaa(lp649
(lp650
F0.012162701226770878
aa(lp651
F0.012162701226770878
aaa(lp652
(lp653
F0.012443947605788708
aa(lp654
F0.012443947605788708
aaa(lp655
(lp656
F0.012486829422414303
aa(lp657
F0.012486829422414303
aaa(lp658
(lp659
F0.012239818461239338
aa(lp660
F0.012239818461239338
aaa(lp661
(lp662
F0.011968103237450123
aa(lp663
F0.011968103237450123
aaa(lp664
(lp665
F0.011863493360579014
aa(lp666
F0.011863493360579014
aaa(lp667
(lp668
F0.011916553601622581
aa(lp669
F0.011916553601622581
aaa(lp670
(lp671
F0.012108736671507359
aa(lp672
F0.012108736671507359
aaa(lp673
(lp674
F0.012278986163437366
aa(lp675
F0.012278986163437366
aaa(lp676
(lp677
F0.012213439680635929
aa(lp678
F0.012213439680635929
aaa(lp679
(lp680
F0.012014455161988735
aa(lp681
F0.012014455161988735
aaa(lp682
(lp683
F0.011898091062903404
aa(lp684
F0.011898091062903404
aaa(lp685
(lp686
F0.011902114376425743
aa(lp687
F0.011902114376425743
aaa(lp688
(lp689
F0.01200927421450615
aa(lp690
F0.01200927421450615
aaa(lp691
(lp692
F0.012124846689403057
aa(lp693
F0.012124846689403057
aaa(lp694
(lp695
F0.01209290698170662
aa(lp696
F0.01209290698170662
aaa(lp697
(lp698
F0.011948163621127605
aa(lp699
F0.011948163621127605
aaa(lp700
(lp701
F0.011862517334520817
aa(lp702
F0.011862517334520817
aaa(lp703
(lp704
F0.011891402304172516
aa(lp705
F0.011891402304172516
aaa(lp706
(lp707
F0.01200183853507042
aa(lp708
F0.01200183853507042
aaa(lp709
(lp710
F0.012053566053509712
aa(lp711
F0.012053566053509712
aaa(lp712
(lp713
F0.011955232359468937
aa(lp714
F0.011955232359468937
aaa(lp715
(lp716
F0.011868146248161793
aa(lp717
F0.011868146248161793
aaa(lp718
(lp719
F0.011867786757647991
aa(lp720
F0.011867786757647991
aaa(lp721
(lp722
F0.011958095245063305
aa(lp723
F0.011958095245063305
aaa(lp724
(lp725
F0.011944973841309547
aa(lp726
F0.011944973841309547
aaa(lp727
(lp728
F0.011839925311505795
aa(lp729
F0.011839925311505795
aaa(lp730
(lp731
F0.011729269288480282
aa(lp732
F0.011729269288480282
aaa(lp733
(lp734
F0.011792890727519989
aa(lp735
F0.011792890727519989
aaa(lp736
(lp737
F0.011918481439352036
aa(lp738
F0.011918481439352036
aaa(lp739
(lp740
F0.01176454871892929
aa(lp741
F0.01176454871892929
aaa(lp742
(lp743
F0.011666272766888142
aa(lp744
F0.011666272766888142
aaa(lp745
(lp746
F0.011738666333258152
aa(lp747
F0.011738666333258152
aaa(lp748
(lp749
F0.011770754121243954
aa(lp750
F0.011770754121243954
aaa(lp751
(lp752
F0.011611112393438816
aa(lp753
F0.011611112393438816
aaa(lp754
(lp755
F0.011650461703538895
aa(lp756
F0.011650461703538895
aaa(lp757
(lp758
F0.011691573075950146
aa(lp759
F0.011691573075950146
aaa(lp760
(lp761
F0.011601243168115616
aa(lp762
F0.011601243168115616
aaa(lp763
(lp764
F0.01165841519832611
aa(lp765
F0.01165841519832611
aaa(lp766
(lp767
F0.011661041527986526
aa(lp768
F0.011661041527986526
aaa(lp769
(lp770
F0.011461632326245308
aa(lp771
F0.011461632326245308
aaa(lp772
(lp773
F0.011730190366506577
aa(lp774
F0.011730190366506577
aaa(lp775
(lp776
F0.01202810276299715
aa(lp777
F0.01202810276299715
aaa(lp778
(lp779
F0.012678851373493671
aa(lp780
F0.012678851373493671
aaa(lp781
(lp782
F0.011585135012865067
aa(lp783
F0.011585135012865067
aaa(lp784
(lp785
F0.01492054108530283
aa(lp786
F0.01492054108530283
aaa(lp787
(lp788
F0.012043179012835026
aa(lp789
F0.012043179012835026
aaa(lp790
(lp791
F0.011633607558906078
aa(lp792
F0.011633607558906078
aaa(lp793
(lp794
F0.011803300119936466
aa(lp795
F0.011803300119936466
aaa(lp796
(lp797
F0.011521557345986366
aa(lp798
F0.011521557345986366
aaa(lp799
(lp800
F0.01232398021966219
aa(lp801
F0.01232398021966219
aaa(lp802
(lp803
F0.013088594190776348
aa(lp804
F0.013088594190776348
aaa(lp805
(lp806
F0.01250951923429966
aa(lp807
F0.01250951923429966
aaa(lp808
(lp809
F0.01171122957020998
aa(lp810
F0.01171122957020998
aaa(lp811
(lp812
F0.011577630415558815
aa(lp813
F0.011577630415558815
aaa(lp814
(lp815
F0.011599092744290829
aa(lp816
F0.011599092744290829
aaa(lp817
(lp818
F0.011584291234612465
aa(lp819
F0.011584291234612465
aaa(lp820
(lp821
F0.011975807137787342
aa(lp822
F0.011975807137787342
aaa(lp823
(lp824
F0.012378868646919727
aa(lp825
F0.012378868646919727
aaa(lp826
(lp827
F0.012052894569933414
aa(lp828
F0.012052894569933414
aaa(lp829
(lp830
F0.011665895581245422
aa(lp831
F0.011665895581245422
aaa(lp832
(lp833
F0.011605008505284786
aa(lp834
F0.011605008505284786
aaa(lp835
(lp836
F0.01158988755196333
aa(lp837
F0.01158988755196333
aaa(lp838
(lp839
F0.01180749200284481
aa(lp840
F0.01180749200284481
aaa(lp841
(lp842
F0.012144058011472225
aa(lp843
F0.012144058011472225
aaa(lp844
(lp845
F0.011764115653932095
aa(lp846
F0.011764115653932095
aaa(lp847
(lp848
F0.011587999761104584
aa(lp849
F0.011587999761104584
aaa(lp850
(lp851
F0.011586949229240417
aa(lp852
F0.011586949229240417
aaa(lp853
(lp854
F0.011816523969173431
aa(lp855
F0.011816523969173431
aaa(lp856
(lp857
F0.011975783854722977
aa(lp858
F0.011975783854722977
aaa(lp859
(lp860
F0.011631186120212078
aa(lp861
F0.011631186120212078
aaa(lp862
(lp863
F0.011627277359366417
aa(lp864
F0.011627277359366417
aaa(lp865
(lp866
F0.011749663390219212
aa(lp867
F0.011749663390219212
aaa(lp868
(lp869
F0.011950202286243439
aa(lp870
F0.011950202286243439
aaa(lp871
(lp872
F0.011664170771837234
aa(lp873
F0.011664170771837234
aaa(lp874
(lp875
F0.011700800620019436
aa(lp876
F0.011700800620019436
aaa(lp877
(lp878
F0.01207269448786974
aa(lp879
F0.01207269448786974
aaa(lp880
(lp881
F0.011809886433184147
aa(lp882
F0.011809886433184147
aaa(lp883
(lp884
F0.011868255212903023
aa(lp885
F0.011868255212903023
aaa(lp886
(lp887
F0.012215285561978817
aa(lp888
F0.012215285561978817
aaa(lp889
(lp890
F0.011962003074586391
aa(lp891
F0.011962003074586391
aaa(lp892
(lp893
F0.012024298310279846
aa(lp894
F0.012024298310279846
aaa(lp895
(lp896
F0.012187900021672249
aa(lp897
F0.012187900021672249
aaa(lp898
(lp899
F0.012252199463546276
aa(lp900
F0.012252199463546276
aaa(lp901
(lp902
F0.012767254374921322
aa(lp903
F0.012767254374921322
aaaa.