(lp0
(lp1
(lp2
(lp3
F0.026112040504813194
aa(lp4
F0.026112040504813194
aaa(lp5
(lp6
F0.13943620026111603
aa(lp7
F0.13943620026111603
aaa(lp8
(lp9
F0.028350044041872025
aa(lp10
F0.028350044041872025
aaa(lp11
(lp12
F0.019108595326542854
aa(lp13
F0.019108595326542854
aaa(lp14
(lp15
F0.01913623884320259
aa(lp16
F0.01913623884320259
aaa(lp17
(lp18
F0.018915370106697083
aa(lp19
F0.018915370106697083
aaa(lp20
(lp21
F0.018916942179203033
aa(lp22
F0.018916942179203033
aaa(lp23
(lp24
F0.01903648115694523
aa(lp25
F0.01903648115694523
aaa(lp26
(lp27
F0.01895718090236187
aa(lp28
F0.01895718090236187
aaa(lp29
(lp30
F0.018874702975153923
aa(lp31
F0.018874702975153923
aaaa(lp32
(lp33
(lp34
F0.11885339021682739
aa(lp35
F0.11885339021682739
aaa(lp36
(lp37
F0.017438629642128944
aa(lp38
F0.017438629642128944
aaa(lp39
(lp40
F0.012930197641253471
aa(lp41
F0.012930197641253471
aaa(lp42
(lp43
F0.012996580451726913
aa(lp44
F0.012996580451726913
aaa(lp45
(lp46
F0.012352843768894672
aa(lp47
F0.012352843768894672
aaa(lp48
(lp49
F0.011908532120287418
aa(lp50
F0.011908532120287418
aaa(lp51
(lp52
F0.01185444463044405
aa(lp53
F0.01185444463044405
aaa(lp54
(lp55
F0.011922321282327175
aa(lp56
F0.011922321282327175
aaa(lp57
(lp58
F0.012206864543259144
aa(lp59
F0.012206864543259144
aaa(lp60
(lp61
F0.012683263048529625
aa(lp62
F0.012683263048529625
aaaa(lp63
(lp64
(lp65
F0.11885339021682739
aa(lp66
F0.11885339021682739
aaa(lp67
(lp68
F0.017438629642128944
aa(lp69
F0.017438629642128944
aaa(lp70
(lp71
F0.012930197641253471
aa(lp72
F0.012930197641253471
aaa(lp73
(lp74
F0.012996580451726913
aa(lp75
F0.012996580451726913
aaa(lp76
(lp77
F0.012352843768894672
aa(lp78
F0.012352843768894672
aaa(lp79
(lp80
F0.011908532120287418
aa(lp81
F0.011908532120287418
aaa(lp82
(lp83
F0.01185444463044405
aa(lp84
F0.01185444463044405
aaa(lp85
(lp86
F0.011922321282327175
aa(lp87
F0.011922321282327175
aaa(lp88
(lp89
F0.012206864543259144
aa(lp90
F0.012206864543259144
aaa(lp91
(lp92
F0.012683263048529625
aa(lp93
F0.012683263048529625
aaaa.