(lp0
(lp1
(lp2
(lp3
F0.026112040504813194
aa(lp4
F0.026112040504813194
aaa(lp5
(lp6
F0.13943620026111603
aa(lp7
F0.13943620026111603
aaa(lp8
(lp9
F0.028350042179226875
aa(lp10
F0.028350042179226875
aaa(lp11
(lp12
F0.019108595326542854
aa(lp13
F0.019108595326542854
aaa(lp14
(lp15
F0.01913623884320259
aa(lp16
F0.01913623884320259
aaa(lp17
(lp18
F0.018915371969342232
aa(lp19
F0.018915371969342232
aaa(lp20
(lp21
F0.018916942179203033
aa(lp22
F0.018916942179203033
aaa(lp23
(lp24
F0.019036483019590378
aa(lp25
F0.019036483019590378
aaa(lp26
(lp27
F0.01895717717707157
aa(lp28
F0.01895717717707157
aaa(lp29
(lp30
F0.018874704837799072
aa(lp31
F0.018874704837799072
aaa(lp32
(lp33
F0.01900045946240425
aa(lp34
F0.01900045946240425
aaa(lp35
(lp36
F0.018991397693753242
aa(lp37
F0.018991397693753242
aaa(lp38
(lp39
F0.018868446350097656
aa(lp40
F0.018868446350097656
aaa(lp41
(lp42
F0.018867185339331627
aa(lp43
F0.018867185339331627
aaa(lp44
(lp45
F0.01894015446305275
aa(lp46
F0.01894015446305275
aaa(lp47
(lp48
F0.018882688134908676
aa(lp49
F0.018882688134908676
aaa(lp50
(lp51
F0.018821079283952713
aa(lp52
F0.018821079283952713
aaa(lp53
(lp54
F0.018856104463338852
aa(lp55
F0.018856104463338852
aaa(lp56
(lp57
F0.01884870044887066
aa(lp58
F0.01884870044887066
aaa(lp59
(lp60
F0.0187723096460104
aa(lp61
F0.0187723096460104
aaa(lp62
(lp63
F0.01875021867454052
aa(lp64
F0.01875021867454052
aaa(lp65
(lp66
F0.01876756362617016
aa(lp67
F0.01876756362617016
aaa(lp68
(lp69
F0.018713420256972313
aa(lp70
F0.018713420256972313
aaa(lp71
(lp72
F0.018674125894904137
aa(lp73
F0.018674125894904137
aaa(lp74
(lp75
F0.018687421455979347
aa(lp76
F0.018687421455979347
aaa(lp77
(lp78
F0.018661201000213623
aa(lp79
F0.018661201000213623
aaa(lp80
(lp81
F0.018617551773786545
aa(lp82
F0.018617551773786545
aaa(lp83
(lp84
F0.01861119642853737
aa(lp85
F0.01861119642853737
aaa(lp86
(lp87
F0.018587538972496986
aa(lp88
F0.018587538972496986
aaa(lp89
(lp90
F0.01855502836406231
aa(lp91
F0.01855502836406231
aaa(lp92
(lp93
F0.01854867860674858
aa(lp94
F0.01854867860674858
aaa(lp95
(lp96
F0.01851993426680565
aa(lp97
F0.01851993426680565
aaa(lp98
(lp99
F0.018486199900507927
aa(lp100
F0.018486199900507927
aaa(lp101
(lp102
F0.018470371142029762
aa(lp103
F0.018470371142029762
aaa(lp104
(lp105
F0.01843808777630329
aa(lp106
F0.01843808777630329
aaa(lp107
(lp108
F0.01841043122112751
aa(lp109
F0.01841043122112751
aaa(lp110
(lp111
F0.01838773675262928
aa(lp112
F0.01838773675262928
aaa(lp113
(lp114
F0.01834866963326931
aa(lp115
F0.01834866963326931
aaa(lp116
(lp117
F0.018333159387111664
aa(lp118
F0.018333159387111664
aaa(lp119
(lp120
F0.01829342730343342
aa(lp121
F0.01829342730343342
aaa(lp122
(lp123
F0.018261630088090897
aa(lp124
F0.018261630088090897
aaa(lp125
(lp126
F0.018230918794870377
aa(lp127
F0.018230918794870377
aaa(lp128
(lp129
F0.018193213269114494
aa(lp130
F0.018193213269114494
aaa(lp131
(lp132
F0.018160568550229073
aa(lp133
F0.018160568550229073
aaa(lp134
(lp135
F0.018111849203705788
aa(lp136
F0.018111849203705788
aaa(lp137
(lp138
F0.018070759251713753
aa(lp139
F0.018070759251713753
aaa(lp140
(lp141
F0.01802140660583973
aa(lp142
F0.01802140660583973
aaa(lp143
(lp144
F0.01797858625650406
aa(lp145
F0.01797858625650406
aaa(lp146
(lp147
F0.017920011654496193
aa(lp148
F0.017920011654496193
aaa(lp149
(lp150
F0.01787462830543518
aa(lp151
F0.01787462830543518
aaa(lp152
(lp153
F0.01781945489346981
aa(lp154
F0.01781945489346981
aaa(lp155
(lp156
F0.017767807468771935
aa(lp157
F0.017767807468771935
aaa(lp158
(lp159
F0.017709610983729362
aa(lp160
F0.017709610983729362
aaa(lp161
(lp162
F0.017639964818954468
aa(lp163
F0.017639964818954468
aaa(lp164
(lp165
F0.01756289042532444
aa(lp166
F0.01756289042532444
aaa(lp167
(lp168
F0.017475808039307594
aa(lp169
F0.017475808039307594
aaa(lp170
(lp171
F0.01740698143839836
aa(lp172
F0.01740698143839836
aaa(lp173
(lp174
F0.017258187755942345
aa(lp175
F0.017258187755942345
aaa(lp176
(lp177
F0.018110811710357666
aa(lp178
F0.018110811710357666
aaa(lp179
(lp180
F0.020580293610692024
aa(lp181
F0.020580293610692024
aaa(lp182
(lp183
F0.01819884032011032
aa(lp184
F0.01819884032011032
aaa(lp185
(lp186
F0.01793006993830204
aa(lp187
F0.01793006993830204
aaa(lp188
(lp189
F0.019009368494153023
aa(lp190
F0.019009368494153023
aaa(lp191
(lp192
F0.01761486940085888
aa(lp193
F0.01761486940085888
aaa(lp194
(lp195
F0.017753727734088898
aa(lp196
F0.017753727734088898
aaa(lp197
(lp198
F0.01839381270110607
aa(lp199
F0.01839381270110607
aaa(lp200
(lp201
F0.018208757042884827
aa(lp202
F0.018208757042884827
aaa(lp203
(lp204
F0.017652006819844246
aa(lp205
F0.017652006819844246
aaa(lp206
(lp207
F0.017536332830786705
aa(lp208
F0.017536332830786705
aaa(lp209
(lp210
F0.01782163232564926
aa(lp211
F0.01782163232564926
aaa(lp212
(lp213
F0.017809107899665833
aa(lp214
F0.017809107899665833
aaa(lp215
(lp216
F0.01740126498043537
aa(lp217
F0.01740126498043537
aaa(lp218
(lp219
F0.017311498522758484
aa(lp220
F0.017311498522758484
aaa(lp221
(lp222
F0.017483724281191826
aa(lp223
F0.017483724281191826
aaa(lp224
(lp225
F0.017434412613511086
aa(lp226
F0.017434412613511086
aaa(lp227
(lp228
F0.01711983047425747
aa(lp229
F0.01711983047425747
aaa(lp230
(lp231
F0.016991620883345604
aa(lp232
F0.016991620883345604
aaa(lp233
(lp234
F0.01710900478065014
aa(lp235
F0.01710900478065014
aaa(lp236
(lp237
F0.016927991062402725
aa(lp238
F0.016927991062402725
aaa(lp239
(lp240
F0.01670430786907673
aa(lp241
F0.01670430786907673
aaa(lp242
(lp243
F0.01677054725587368
aa(lp244
F0.01677054725587368
aaa(lp245
(lp246
F0.016710475087165833
aa(lp247
F0.016710475087165833
aaa(lp248
(lp249
F0.01645481027662754
aa(lp250
F0.01645481027662754
aaa(lp251
(lp252
F0.01645595394074917
aa(lp253
F0.01645595394074917
aaa(lp254
(lp255
F0.016403520479798317
aa(lp256
F0.016403520479798317
aaa(lp257
(lp258
F0.016137631610035896
aa(lp259
F0.016137631610035896
aaa(lp260
(lp261
F0.016132371500134468
aa(lp262
F0.016132371500134468
aaa(lp263
(lp264
F0.01597088947892189
aa(lp265
F0.01597088947892189
aaa(lp266
(lp267
F0.015787962824106216
aa(lp268
F0.015787962824106216
aaa(lp269
(lp270
F0.0157522801309824
aa(lp271
F0.0157522801309824
aaa(lp272
(lp273
F0.015507987700402737
aa(lp274
F0.015507987700402737
aaa(lp275
(lp276
F0.015455563552677631
aa(lp277
F0.015455563552677631
aaa(lp278
(lp279
F0.01521244365721941
aa(lp280
F0.01521244365721941
aaa(lp281
(lp282
F0.015125920996069908
aa(lp283
F0.015125920996069908
aaa(lp284
(lp285
F0.014879180118441582
aa(lp286
F0.014879180118441582
aaa(lp287
(lp288
F0.014791946858167648
aa(lp289
F0.014791946858167648
aaa(lp290
(lp291
F0.014552422799170017
aa(lp292
F0.014552422799170017
aaa(lp293
(lp294
F0.014339922927320004
aa(lp295
F0.014339922927320004
aaa(lp296
(lp297
F0.014216241426765919
aa(lp298
F0.014216241426765919
aaa(lp299
(lp300
F0.014012034051120281
aa(lp301
F0.014012034051120281
aaa(lp302
(lp303
F0.013779514469206333
aa(lp304
F0.013779514469206333
aaa(lp305
(lp306
F0.013540432788431644
aa(lp307
F0.013540432788431644
aaa(lp308
(lp309
F0.013293295167386532
aa(lp310
F0.013293295167386532
aaa(lp311
(lp312
F0.013067350722849369
aa(lp313
F0.013067350722849369
aaa(lp314
(lp315
F0.012871661223471165
aa(lp316
F0.012871661223471165
aaa(lp317
(lp318
F0.012911098077893257
aa(lp319
F0.012911098077893257
aaa(lp320
(lp321
F0.015201659873127937
aa(lp322
F0.015201659873127937
aaa(lp323
(lp324
F0.020403949543833733
aa(lp325
F0.020403949543833733
aaa(lp326
(lp327
F0.017824426293373108
aa(lp328
F0.017824426293373108
aaa(lp329
(lp330
F0.015536263585090637
aa(lp331
F0.015536263585090637
aaa(lp332
(lp333
F0.01391566265374422
aa(lp334
F0.01391566265374422
aaa(lp335
(lp336
F0.016111483797430992
aa(lp337
F0.016111483797430992
aaa(lp338
(lp339
F0.01284084003418684
aa(lp340
F0.01284084003418684
aaa(lp341
(lp342
F0.01458557415753603
aa(lp343
F0.01458557415753603
aaa(lp344
(lp345
F0.015221127308905125
aa(lp346
F0.015221127308905125
aaa(lp347
(lp348
F0.013766998425126076
aa(lp349
F0.013766998425126076
aaa(lp350
(lp351
F0.013168594799935818
aa(lp352
F0.013168594799935818
aaa(lp353
(lp354
F0.014184454455971718
aa(lp355
F0.014184454455971718
aaa(lp356
(lp357
F0.013172903098165989
aa(lp358
F0.013172903098165989
aaa(lp359
(lp360
F0.012236342765390873
aa(lp361
F0.012236342765390873
aaa(lp362
(lp363
F0.012767539359629154
aa(lp364
F0.012767539359629154
aaa(lp365
(lp366
F0.01213795691728592
aa(lp367
F0.01213795691728592
aaa(lp368
(lp369
F0.0114905321970582
aa(lp370
F0.0114905321970582
aaa(lp371
(lp372
F0.012119468301534653
aa(lp373
F0.012119468301534653
aaa(lp374
(lp375
F0.011121355928480625
aa(lp376
F0.011121355928480625
aaa(lp377
(lp378
F0.0113437594845891
aa(lp379
F0.0113437594845891
aaa(lp380
(lp381
F0.010972685180604458
aa(lp382
F0.010972685180604458
aaa(lp383
(lp384
F0.010622476227581501
aa(lp385
F0.010622476227581501
aaa(lp386
(lp387
F0.01057258527725935
aa(lp388
F0.01057258527725935
aaa(lp389
(lp390
F0.010257287882268429
aa(lp391
F0.010257287882268429
aaa(lp392
(lp393
F0.01006352249532938
aa(lp394
F0.01006352249532938
aaa(lp395
(lp396
F0.009997721761465073
aa(lp397
F0.009997721761465073
aaa(lp398
(lp399
F0.009379920549690723
aa(lp400
F0.009379920549690723
aaa(lp401
(lp402
F0.009623341262340546
aa(lp403
F0.009623341262340546
aaa(lp404
(lp405
F0.008963063359260559
aa(lp406
F0.008963063359260559
aaa(lp407
(lp408
F0.009071042761206627
aa(lp409
F0.009071042761206627
aaa(lp410
(lp411
F0.0089622987434268
aa(lp412
F0.0089622987434268
aaa(lp413
(lp414
F0.008345791138708591
aa(lp415
F0.008345791138708591
aaa(lp416
(lp417
F0.008603005670011044
aa(lp418
F0.008603005670011044
aaa(lp419
(lp420
F0.008386109955608845
aa(lp421
F0.008386109955608845
aaa(lp422
(lp423
F0.007710750680416822
aa(lp424
F0.007710750680416822
aaa(lp425
(lp426
F0.007946664467453957
aa(lp427
F0.007946664467453957
aaa(lp428
(lp429
F0.008003625087440014
aa(lp430
F0.008003625087440014
aaa(lp431
(lp432
F0.007211457006633282
aa(lp433
F0.007211457006633282
aaa(lp434
(lp435
F0.006911588367074728
aa(lp436
F0.006911588367074728
aaa(lp437
(lp438
F0.007137007545679808
aa(lp439
F0.007137007545679808
aaa(lp440
(lp441
F0.007055339869111776
aa(lp442
F0.007055339869111776
aaa(lp443
(lp444
F0.006637056823819876
aa(lp445
F0.006637056823819876
aaa(lp446
(lp447
F0.00612012529745698
aa(lp448
F0.00612012529745698
aaa(lp449
(lp450
F0.005881797522306442
aa(lp451
F0.005881797522306442
aaa(lp452
(lp453
F0.005905585829168558
aa(lp454
F0.005905585829168558
aaa(lp455
(lp456
F0.0059575107879936695
aa(lp457
F0.0059575107879936695
aaa(lp458
(lp459
F0.006073261611163616
aa(lp460
F0.006073261611163616
aaa(lp461
(lp462
F0.006088630296289921
aa(lp463
F0.006088630296289921
aaa(lp464
(lp465
F0.006308307405561209
aa(lp466
F0.006308307405561209
aaa(lp467
(lp468
F0.005901212804019451
aa(lp469
F0.005901212804019451
aaa(lp470
(lp471
F0.00545097142457962
aa(lp472
F0.00545097142457962
aaa(lp473
(lp474
F0.004607203882187605
aa(lp475
F0.004607203882187605
aaa(lp476
(lp477
F0.004282962530851364
aa(lp478
F0.004282962530851364
aaa(lp479
(lp480
F0.004490766674280167
aa(lp481
F0.004490766674280167
aaa(lp482
(lp483
F0.004745952319353819
aa(lp484
F0.004745952319353819
aaa(lp485
(lp486
F0.005066632758826017
aa(lp487
F0.005066632758826017
aaa(lp488
(lp489
F0.004654165357351303
aa(lp490
F0.004654165357351303
aaa(lp491
(lp492
F0.004264555871486664
aa(lp493
F0.004264555871486664
aaa(lp494
(lp495
F0.003606824902817607
aa(lp496
F0.003606824902817607
aaa(lp497
(lp498
F0.003226660657674074
aa(lp499
F0.003226660657674074
aaa(lp500
(lp501
F0.003119850531220436
aa(lp502
F0.003119850531220436
aaa(lp503
(lp504
F0.003230581758543849
aa(lp505
F0.003230581758543849
aaa(lp506
(lp507
F0.003678077831864357
aa(lp508
F0.003678077831864357
aaa(lp509
(lp510
F0.0044211121276021
aa(lp511
F0.0044211121276021
aaa(lp512
(lp513
F0.006575586274266243
aa(lp514
F0.006575586274266243
aaa(lp515
(lp516
F0.006268409546464682
aa(lp517
F0.006268409546464682
aaa(lp518
(lp519
F0.005034066271036863
aa(lp520
F0.005034066271036863
aaa(lp521
(lp522
F0.002486791927367449
aa(lp523
F0.002486791927367449
aaa(lp524
(lp525
F0.004496471956372261
aa(lp526
F0.004496471956372261
aaa(lp527
(lp528
F0.004997562617063522
aa(lp529
F0.004997562617063522
aaa(lp530
(lp531
F0.0023857082705944777
aa(lp532
F0.0023857082705944777
aaa(lp533
(lp534
F0.005082747433334589
aa(lp535
F0.005082747433334589
aaa(lp536
(lp537
F0.004050802439451218
aa(lp538
F0.004050802439451218
aaa(lp539
(lp540
F0.00277278502471745
aa(lp541
F0.00277278502471745
aaa(lp542
(lp543
F0.004994689952582121
aa(lp544
F0.004994689952582121
aaa(lp545
(lp546
F0.0023763554636389017
aa(lp547
F0.0023763554636389017
aaa(lp548
(lp549
F0.003515752498060465
aa(lp550
F0.003515752498060465
aaa(lp551
(lp552
F0.0029419520869851112
aa(lp553
F0.0029419520869851112
aaa(lp554
(lp555
F0.0020741396583616734
aa(lp556
F0.0020741396583616734
aaa(lp557
(lp558
F0.003181896638125181
aa(lp559
F0.003181896638125181
aaa(lp560
(lp561
F0.001706585637293756
aa(lp562
F0.001706585637293756
aaa(lp563
(lp564
F0.002561914036050439
aa(lp565
F0.002561914036050439
aaa(lp566
(lp567
F0.002644335152581334
aa(lp568
F0.002644335152581334
aaa(lp569
(lp570
F0.0014489870518445969
aa(lp571
F0.0014489870518445969
aaa(lp572
(lp573
F0.0025775444228202105
aa(lp574
F0.0025775444228202105
aaa(lp575
(lp576
F0.0023283178452402353
aa(lp577
F0.0023283178452402353
aaa(lp578
(lp579
F0.0012919658329337835
aa(lp580
F0.0012919658329337835
aaa(lp581
(lp582
F0.002361818915233016
aa(lp583
F0.002361818915233016
aaa(lp584
(lp585
F0.0021265284158289433
aa(lp586
F0.0021265284158289433
aaa(lp587
(lp588
F0.0011236077407374978
aa(lp589
F0.0011236077407374978
aaa(lp590
(lp591
F0.0020831588190048933
aa(lp592
F0.0020831588190048933
aaa(lp593
(lp594
F0.002119094366207719
aa(lp595
F0.002119094366207719
aaa(lp596
(lp597
F0.0009966837242245674
aa(lp598
F0.0009966837242245674
aaa(lp599
(lp600
F0.0017149109626188874
aa(lp601
F0.0017149109626188874
aaaa(lp602
(lp603
(lp604
F0.11885339766740799
aa(lp605
F0.11885339766740799
aaa(lp606
(lp607
F0.017438627779483795
aa(lp608
F0.017438627779483795
aaa(lp609
(lp610
F0.01293019950389862
aa(lp611
F0.01293019950389862
aaa(lp612
(lp613
F0.012996580451726913
aa(lp614
F0.012996580451726913
aaa(lp615
(lp616
F0.012352842837572098
aa(lp617
F0.012352842837572098
aaa(lp618
(lp619
F0.011908532120287418
aa(lp620
F0.011908532120287418
aaa(lp621
(lp622
F0.011854445561766624
aa(lp623
F0.011854445561766624
aaa(lp624
(lp625
F0.0119223203510046
aa(lp626
F0.0119223203510046
aaa(lp627
(lp628
F0.012206868268549442
aa(lp629
F0.012206868268549442
aaa(lp630
(lp631
F0.012683277018368244
aa(lp632
F0.012683277018368244
aaa(lp633
(lp634
F0.012681553140282631
aa(lp635
F0.012681553140282631
aaa(lp636
(lp637
F0.012324760667979717
aa(lp638
F0.012324760667979717
aaa(lp639
(lp640
F0.011998076923191547
aa(lp641
F0.011998076923191547
aaa(lp642
(lp643
F0.011888277716934681
aa(lp644
F0.011888277716934681
aaa(lp645
(lp646
F0.011941911652684212
aa(lp647
F0.011941911652684212
aaa(lp648
(lp649
F0.012162711471319199
aa(lp650
F0.012162711471319199
aaa(lp651
(lp652
F0.012443916872143745
aa(lp653
F0.012443916872143745
aaa(lp654
(lp655
F0.012486807070672512
aa(lp656
F0.012486807070672512
aaa(lp657
(lp658
F0.012239808216691017
aa(lp659
F0.012239808216691017
aaa(lp660
(lp661
F0.011968156322836876
aa(lp662
F0.011968156322836876
aaa(lp663
(lp664
F0.01186362374573946
aa(lp665
F0.01186362374573946
aaa(lp666
(lp667
F0.011916489340364933
aa(lp668
F0.011916489340364933
aaa(lp669
(lp670
F0.01210829894989729
aa(lp671
F0.01210829894989729
aaa(lp672
(lp673
F0.012278520502150059
aa(lp674
F0.012278520502150059
aaa(lp675
(lp676
F0.012212463654577732
aa(lp677
F0.012212463654577732
aaa(lp678
(lp679
F0.012011736631393433
aa(lp680
F0.012011736631393433
aaa(lp681
(lp682
F0.01189257949590683
aa(lp683
F0.01189257949590683
aaa(lp684
(lp685
F0.011906583793461323
aa(lp686
F0.011906583793461323
aaa(lp687
(lp688
F0.012020006775856018
aa(lp689
F0.012020006775856018
aaa(lp690
(lp691
F0.012131854891777039
aa(lp692
F0.012131854891777039
aaa(lp693
(lp694
F0.01209055632352829
aa(lp695
F0.01209055632352829
aaa(lp696
(lp697
F0.011944624595344067
aa(lp698
F0.011944624595344067
aaa(lp699
(lp700
F0.011862671934068203
aa(lp701
F0.011862671934068203
aaa(lp702
(lp703
F0.011895081028342247
aa(lp704
F0.011895081028342247
aaa(lp705
(lp706
F0.01200008299201727
aa(lp707
F0.01200008299201727
aaa(lp708
(lp709
F0.012042379938066006
aa(lp710
F0.012042379938066006
aaa(lp711
(lp712
F0.011947249062359333
aa(lp713
F0.011947249062359333
aaa(lp714
(lp715
F0.011860118247568607
aa(lp716
F0.011860118247568607
aaa(lp717
(lp718
F0.011873655021190643
aa(lp719
F0.011873655021190643
aaa(lp720
(lp721
F0.011958234012126923
aa(lp722
F0.011958234012126923
aaa(lp723
(lp724
F0.011942142620682716
aa(lp725
F0.011942142620682716
aaa(lp726
(lp727
F0.011845762841403484
aa(lp728
F0.011845762841403484
aaa(lp729
(lp730
F0.011750689707696438
aa(lp731
F0.011750689707696438
aaa(lp732
(lp733
F0.011829379014670849
aa(lp734
F0.011829379014670849
aaa(lp735
(lp736
F0.011889909394085407
aa(lp737
F0.011889909394085407
aaa(lp738
(lp739
F0.011818797327578068
aa(lp740
F0.011818797327578068
aaa(lp741
(lp742
F0.011755399405956268
aa(lp743
F0.011755399405956268
aaa(lp744
(lp745
F0.011770219542086124
aa(lp746
F0.011770219542086124
aaa(lp747
(lp748
F0.011696805246174335
aa(lp749
F0.011696805246174335
aaa(lp750
(lp751
F0.011689448729157448
aa(lp752
F0.011689448729157448
aaa(lp753
(lp754
F0.011666795238852501
aa(lp755
F0.011666795238852501
aaa(lp756
(lp757
F0.01159412320703268
aa(lp758
F0.01159412320703268
aaa(lp759
(lp760
F0.011676701717078686
aa(lp761
F0.011676701717078686
aaa(lp762
(lp763
F0.011567595414817333
aa(lp764
F0.011567595414817333
aaa(lp765
(lp766
F0.01159639935940504
aa(lp767
F0.01159639935940504
aaa(lp768
(lp769
F0.011621112003922462
aa(lp770
F0.011621112003922462
aaa(lp771
(lp772
F0.011482171714305878
aa(lp773
F0.011482171714305878
aaa(lp774
(lp775
F0.01321623008698225
aa(lp776
F0.01321623008698225
aaa(lp777
(lp778
F0.013054555281996727
aa(lp779
F0.013054555281996727
aaa(lp780
(lp781
F0.0116535983979702
aa(lp782
F0.0116535983979702
aaa(lp783
(lp784
F0.012788604944944382
aa(lp785
F0.012788604944944382
aaa(lp786
(lp787
F0.013982155360281467
aa(lp788
F0.013982155360281467
aaa(lp789
(lp790
F0.012200060300529003
aa(lp791
F0.012200060300529003
aaa(lp792
(lp793
F0.011532255448400974
aa(lp794
F0.011532255448400974
aaa(lp795
(lp796
F0.011697933077812195
aa(lp797
F0.011697933077812195
aaa(lp798
(lp799
F0.011633001267910004
aa(lp800
F0.011633001267910004
aaa(lp801
(lp802
F0.011586169712245464
aa(lp803
F0.011586169712245464
aaa(lp804
(lp805
F0.011989852413535118
aa(lp806
F0.011989852413535118
aaa(lp807
(lp808
F0.012606450356543064
aa(lp809
F0.012606450356543064
aaa(lp810
(lp811
F0.012657963670790195
aa(lp812
F0.012657963670790195
aaa(lp813
(lp814
F0.012150222435593605
aa(lp815
F0.012150222435593605
aaa(lp816
(lp817
F0.011724689044058323
aa(lp818
F0.011724689044058323
aaa(lp819
(lp820
F0.011643718928098679
aa(lp821
F0.011643718928098679
aaa(lp822
(lp823
F0.011650457978248596
aa(lp824
F0.011650457978248596
aaa(lp825
(lp826
F0.011701435782015324
aa(lp827
F0.011701435782015324
aaa(lp828
(lp829
F0.012001981027424335
aa(lp830
F0.012001981027424335
aaa(lp831
(lp832
F0.012369537726044655
aa(lp833
F0.012369537726044655
aaa(lp834
(lp835
F0.01222458016127348
aa(lp836
F0.01222458016127348
aaa(lp837
(lp838
F0.011801165528595448
aa(lp839
F0.011801165528595448
aaa(lp840
(lp841
F0.011643799021840096
aa(lp842
F0.011643799021840096
aaa(lp843
(lp844
F0.011641377583146095
aa(lp845
F0.011641377583146095
aaa(lp846
(lp847
F0.01171261165291071
aa(lp848
F0.01171261165291071
aaa(lp849
(lp850
F0.012093320488929749
aa(lp851
F0.012093320488929749
aaa(lp852
(lp853
F0.012190078385174274
aa(lp854
F0.012190078385174274
aaa(lp855
(lp856
F0.011806405149400234
aa(lp857
F0.011806405149400234
aaa(lp858
(lp859
F0.011666763573884964
aa(lp860
F0.011666763573884964
aaa(lp861
(lp862
F0.011693690903484821
aa(lp863
F0.011693690903484821
aaa(lp864
(lp865
F0.01189632248133421
aa(lp866
F0.01189632248133421
aaa(lp867
(lp868
F0.012107977643609047
aa(lp869
F0.012107977643609047
aaa(lp870
(lp871
F0.011827843263745308
aa(lp872
F0.011827843263745308
aaa(lp873
(lp874
F0.011712327599525452
aa(lp875
F0.011712327599525452
aaa(lp876
(lp877
F0.011771969497203827
aa(lp878
F0.011771969497203827
aaa(lp879
(lp880
F0.01203995943069458
aa(lp881
F0.01203995943069458
aaa(lp882
(lp883
F0.011861927807331085
aa(lp884
F0.011861927807331085
aaa(lp885
(lp886
F0.011798770166933537
aa(lp887
F0.011798770166933537
aaa(lp888
(lp889
F0.012039254419505596
aa(lp890
F0.012039254419505596
aaa(lp891
(lp892
F0.012028479017317295
aa(lp893
F0.012028479017317295
aaa(lp894
(lp895
F0.011942249722778797
aa(lp896
F0.011942249722778797
aaa(lp897
(lp898
F0.0122657036408782
aa(lp899
F0.0122657036408782
aaa(lp900
(lp901
F0.012089576572179794
aa(lp902
F0.012089576572179794
aaa(lp903
(lp904
F0.012289751321077347
aa(lp905
F0.012289751321077347
aaa(lp906
(lp907
F0.012215720489621162
aa(lp908
F0.012215720489621162
aaa(lp909
(lp910
F0.012359053827822208
aa(lp911
F0.012359053827822208
aaa(lp912
(lp913
F0.01236798707395792
aa(lp914
F0.01236798707395792
aaa(lp915
(lp916
F0.01294640451669693
aa(lp917
F0.01294640451669693
aaa(lp918
(lp919
F0.014609185978770256
aa(lp920
F0.014609185978770256
aaa(lp921
(lp922
F0.020650165155529976
aa(lp923
F0.020650165155529976
aaa(lp924
(lp925
F0.01689177379012108
aa(lp926
F0.01689177379012108
aaa(lp927
(lp928
F0.014815363101661205
aa(lp929
F0.014815363101661205
aaa(lp930
(lp931
F0.01446988619863987
aa(lp932
F0.01446988619863987
aaa(lp933
(lp934
F0.016254542395472527
aa(lp935
F0.016254542395472527
aaa(lp936
(lp937
F0.012735658325254917
aa(lp938
F0.012735658325254917
aaa(lp939
(lp940
F0.01299330871552229
aa(lp941
F0.01299330871552229
aaa(lp942
(lp943
F0.013206468895077705
aa(lp944
F0.013206468895077705
aaa(lp945
(lp946
F0.01259719580411911
aa(lp947
F0.01259719580411911
aaa(lp948
(lp949
F0.012711213901638985
aa(lp950
F0.012711213901638985
aaa(lp951
(lp952
F0.013915186747908592
aa(lp953
F0.013915186747908592
aaa(lp954
(lp955
F0.013305896893143654
aa(lp956
F0.013305896893143654
aaa(lp957
(lp958
F0.012627733871340752
aa(lp959
F0.012627733871340752
aaa(lp960
(lp961
F0.013083497993648052
aa(lp962
F0.013083497993648052
aaa(lp963
(lp964
F0.012914959341287613
aa(lp965
F0.012914959341287613
aaa(lp966
(lp967
F0.01288076676428318
aa(lp968
F0.01288076676428318
aaa(lp969
(lp970
F0.013889010064303875
aa(lp971
F0.013889010064303875
aaa(lp972
(lp973
F0.013168572448194027
aa(lp974
F0.013168572448194027
aaa(lp975
(lp976
F0.013472727499902248
aa(lp977
F0.013472727499902248
aaa(lp978
(lp979
F0.013438435271382332
aa(lp980
F0.013438435271382332
aaa(lp981
(lp982
F0.013657044619321823
aa(lp983
F0.013657044619321823
aaa(lp984
(lp985
F0.013895985670387745
aa(lp986
F0.013895985670387745
aaa(lp987
(lp988
F0.013643632642924786
aa(lp989
F0.013643632642924786
aaa(lp990
(lp991
F0.013736538589000702
aa(lp992
F0.013736538589000702
aaa(lp993
(lp994
F0.014185641892254353
aa(lp995
F0.014185641892254353
aaa(lp996
(lp997
F0.013831914402544498
aa(lp998
F0.013831914402544498
aaa(lp999
(lp1000
F0.014189748093485832
aa(lp1001
F0.014189748093485832
aaa(lp1002
(lp1003
F0.014012308791279793
aa(lp1004
F0.014012308791279793
aaa(lp1005
(lp1006
F0.014431421644985676
aa(lp1007
F0.014431421644985676
aaa(lp1008
(lp1009
F0.01450402569025755
aa(lp1010
F0.01450402569025755
aaa(lp1011
(lp1012
F0.014328859746456146
aa(lp1013
F0.014328859746456146
aaa(lp1014
(lp1015
F0.01489049382507801
aa(lp1016
F0.01489049382507801
aaa(lp1017
(lp1018
F0.014886507764458656
aa(lp1019
F0.014886507764458656
aaa(lp1020
(lp1021
F0.014632219448685646
aa(lp1022
F0.014632219448685646
aaa(lp1023
(lp1024
F0.015154281631112099
aa(lp1025
F0.015154281631112099
aaa(lp1026
(lp1027
F0.015450882725417614
aa(lp1028
F0.015450882725417614
aaa(lp1029
(lp1030
F0.015086818486452103
aa(lp1031
F0.015086818486452103
aaa(lp1032
(lp1033
F0.015106302686035633
aa(lp1034
F0.015106302686035633
aaa(lp1035
(lp1036
F0.015593163669109344
aa(lp1037
F0.015593163669109344
aaa(lp1038
(lp1039
F0.01579427719116211
aa(lp1040
F0.01579427719116211
aaa(lp1041
(lp1042
F0.015721844509243965
aa(lp1043
F0.015721844509243965
aaa(lp1044
(lp1045
F0.015520581975579262
aa(lp1046
F0.015520581975579262
aaa(lp1047
(lp1048
F0.015564070083200932
aa(lp1049
F0.015564070083200932
aaa(lp1050
(lp1051
F0.015844447538256645
aa(lp1052
F0.015844447538256645
aaa(lp1053
(lp1054
F0.016104329377412796
aa(lp1055
F0.016104329377412796
aaa(lp1056
(lp1057
F0.0164952352643013
aa(lp1058
F0.0164952352643013
aaa(lp1059
(lp1060
F0.016665229573845863
aa(lp1061
F0.016665229573845863
aaa(lp1062
(lp1063
F0.017168184742331505
aa(lp1064
F0.017168184742331505
aaa(lp1065
(lp1066
F0.016938069835305214
aa(lp1067
F0.016938069835305214
aaa(lp1068
(lp1069
F0.01676962524652481
aa(lp1070
F0.01676962524652481
aaa(lp1071
(lp1072
F0.016173768788576126
aa(lp1073
F0.016173768788576126
aaa(lp1074
(lp1075
F0.016052180901169777
aa(lp1076
F0.016052180901169777
aaa(lp1077
(lp1078
F0.01647290587425232
aa(lp1079
F0.01647290587425232
aaa(lp1080
(lp1081
F0.016806835308670998
aa(lp1082
F0.016806835308670998
aaa(lp1083
(lp1084
F0.017446447163820267
aa(lp1085
F0.017446447163820267
aaa(lp1086
(lp1087
F0.01707448624074459
aa(lp1088
F0.01707448624074459
aaa(lp1089
(lp1090
F0.01703035645186901
aa(lp1091
F0.01703035645186901
aaa(lp1092
(lp1093
F0.016479747369885445
aa(lp1094
F0.016479747369885445
aaa(lp1095
(lp1096
F0.016376029700040817
aa(lp1097
F0.016376029700040817
aaa(lp1098
(lp1099
F0.01646573282778263
aa(lp1100
F0.01646573282778263
aaa(lp1101
(lp1102
F0.01660609245300293
aa(lp1103
F0.01660609245300293
aaa(lp1104
(lp1105
F0.017393700778484344
aa(lp1106
F0.017393700778484344
aaa(lp1107
(lp1108
F0.017836498096585274
aa(lp1109
F0.017836498096585274
aaa(lp1110
(lp1111
F0.020453335717320442
aa(lp1112
F0.020453335717320442
aaa(lp1113
(lp1114
F0.019666029140353203
aa(lp1115
F0.019666029140353203
aaa(lp1116
(lp1117
F0.019104592502117157
aa(lp1118
F0.019104592502117157
aaa(lp1119
(lp1120
F0.01672523096203804
aa(lp1121
F0.01672523096203804
aaa(lp1122
(lp1123
F0.018519284203648567
aa(lp1124
F0.018519284203648567
aaa(lp1125
(lp1126
F0.019407814368605614
aa(lp1127
F0.019407814368605614
aaa(lp1128
(lp1129
F0.017087297514081
aa(lp1130
F0.017087297514081
aaa(lp1131
(lp1132
F0.01929219625890255
aa(lp1133
F0.01929219625890255
aaa(lp1134
(lp1135
F0.018910326063632965
aa(lp1136
F0.018910326063632965
aaa(lp1137
(lp1138
F0.01781098172068596
aa(lp1139
F0.01781098172068596
aaa(lp1140
(lp1141
F0.019479796290397644
aa(lp1142
F0.019479796290397644
aaa(lp1143
(lp1144
F0.01753585785627365
aa(lp1145
F0.01753585785627365
aaa(lp1146
(lp1147
F0.018741441890597343
aa(lp1148
F0.018741441890597343
aaa(lp1149
(lp1150
F0.017937568947672844
aa(lp1151
F0.017937568947672844
aaa(lp1152
(lp1153
F0.017450416460633278
aa(lp1154
F0.017450416460633278
aaa(lp1155
(lp1156
F0.019039006903767586
aa(lp1157
F0.019039006903767586
aaa(lp1158
(lp1159
F0.017450697720050812
aa(lp1160
F0.017450697720050812
aaa(lp1161
(lp1162
F0.018055280670523643
aa(lp1163
F0.018055280670523643
aaa(lp1164
(lp1165
F0.018870865926146507
aa(lp1166
F0.018870865926146507
aaa(lp1167
(lp1168
F0.01752478815615177
aa(lp1169
F0.01752478815615177
aaa(lp1170
(lp1171
F0.018140939995646477
aa(lp1172
F0.018140939995646477
aaa(lp1173
(lp1174
F0.018707137554883957
aa(lp1175
F0.018707137554883957
aaa(lp1176
(lp1177
F0.017520722001791
aa(lp1178
F0.017520722001791
aaa(lp1179
(lp1180
F0.018117571249604225
aa(lp1181
F0.018117571249604225
aaa(lp1182
(lp1183
F0.018759526312351227
aa(lp1184
F0.018759526312351227
aaa(lp1185
(lp1186
F0.017744112759828568
aa(lp1187
F0.017744112759828568
aaa(lp1188
(lp1189
F0.018415523692965508
aa(lp1190
F0.018415523692965508
aaa(lp1191
(lp1192
F0.01920887641608715
aa(lp1193
F0.01920887641608715
aaa(lp1194
(lp1195
F0.018018929287791252
aa(lp1196
F0.018018929287791252
aaa(lp1197
(lp1198
F0.018553031608462334
aa(lp1199
F0.018553031608462334
aaa(lp1200
(lp1201
F0.01940511167049408
aa(lp1202
F0.01940511167049408
aaaa(lp1203
(lp1204
(lp1205
F0.11885339766740799
aa(lp1206
F0.11885339766740799
aaa(lp1207
(lp1208
F0.017438627779483795
aa(lp1209
F0.017438627779483795
aaa(lp1210
(lp1211
F0.01293019950389862
aa(lp1212
F0.01293019950389862
aaa(lp1213
(lp1214
F0.012996580451726913
aa(lp1215
F0.012996580451726913
aaa(lp1216
(lp1217
F0.012352842837572098
aa(lp1218
F0.012352842837572098
aaa(lp1219
(lp1220
F0.011908532120287418
aa(lp1221
F0.011908532120287418
aaa(lp1222
(lp1223
F0.011854445561766624
aa(lp1224
F0.011854445561766624
aaa(lp1225
(lp1226
F0.0119223203510046
aa(lp1227
F0.0119223203510046
aaa(lp1228
(lp1229
F0.012206868268549442
aa(lp1230
F0.012206868268549442
aaa(lp1231
(lp1232
F0.012683277018368244
aa(lp1233
F0.012683277018368244
aaa(lp1234
(lp1235
F0.012681553140282631
aa(lp1236
F0.012681553140282631
aaa(lp1237
(lp1238
F0.012324760667979717
aa(lp1239
F0.012324760667979717
aaa(lp1240
(lp1241
F0.011998076923191547
aa(lp1242
F0.011998076923191547
aaa(lp1243
(lp1244
F0.011888277716934681
aa(lp1245
F0.011888277716934681
aaa(lp1246
(lp1247
F0.011941911652684212
aa(lp1248
F0.011941911652684212
aaa(lp1249
(lp1250
F0.012162711471319199
aa(lp1251
F0.012162711471319199
aaa(lp1252
(lp1253
F0.012443916872143745
aa(lp1254
F0.012443916872143745
aaa(lp1255
(lp1256
F0.012486807070672512
aa(lp1257
F0.012486807070672512
aaa(lp1258
(lp1259
F0.012239808216691017
aa(lp1260
F0.012239808216691017
aaa(lp1261
(lp1262
F0.011968156322836876
aa(lp1263
F0.011968156322836876
aaa(lp1264
(lp1265
F0.01186362374573946
aa(lp1266
F0.01186362374573946
aaa(lp1267
(lp1268
F0.011916489340364933
aa(lp1269
F0.011916489340364933
aaa(lp1270
(lp1271
F0.01210829894989729
aa(lp1272
F0.01210829894989729
aaa(lp1273
(lp1274
F0.012278520502150059
aa(lp1275
F0.012278520502150059
aaa(lp1276
(lp1277
F0.012212463654577732
aa(lp1278
F0.012212463654577732
aaa(lp1279
(lp1280
F0.012011736631393433
aa(lp1281
F0.012011736631393433
aaa(lp1282
(lp1283
F0.01189257949590683
aa(lp1284
F0.01189257949590683
aaa(lp1285
(lp1286
F0.011906583793461323
aa(lp1287
F0.011906583793461323
aaa(lp1288
(lp1289
F0.012020006775856018
aa(lp1290
F0.012020006775856018
aaa(lp1291
(lp1292
F0.012131854891777039
aa(lp1293
F0.012131854891777039
aaa(lp1294
(lp1295
F0.01209055632352829
aa(lp1296
F0.01209055632352829
aaa(lp1297
(lp1298
F0.011944624595344067
aa(lp1299
F0.011944624595344067
aaa(lp1300
(lp1301
F0.011862671934068203
aa(lp1302
F0.011862671934068203
aaa(lp1303
(lp1304
F0.011895081028342247
aa(lp1305
F0.011895081028342247
aaa(lp1306
(lp1307
F0.01200008299201727
aa(lp1308
F0.01200008299201727
aaa(lp1309
(lp1310
F0.012042379938066006
aa(lp1311
F0.012042379938066006
aaa(lp1312
(lp1313
F0.011947249062359333
aa(lp1314
F0.011947249062359333
aaa(lp1315
(lp1316
F0.011860118247568607
aa(lp1317
F0.011860118247568607
aaa(lp1318
(lp1319
F0.011873655021190643
aa(lp1320
F0.011873655021190643
aaa(lp1321
(lp1322
F0.011958234012126923
aa(lp1323
F0.011958234012126923
aaa(lp1324
(lp1325
F0.011942142620682716
aa(lp1326
F0.011942142620682716
aaa(lp1327
(lp1328
F0.011845762841403484
aa(lp1329
F0.011845762841403484
aaa(lp1330
(lp1331
F0.011750689707696438
aa(lp1332
F0.011750689707696438
aaa(lp1333
(lp1334
F0.011829379014670849
aa(lp1335
F0.011829379014670849
aaa(lp1336
(lp1337
F0.011889909394085407
aa(lp1338
F0.011889909394085407
aaa(lp1339
(lp1340
F0.011818797327578068
aa(lp1341
F0.011818797327578068
aaa(lp1342
(lp1343
F0.011755399405956268
aa(lp1344
F0.011755399405956268
aaa(lp1345
(lp1346
F0.011770219542086124
aa(lp1347
F0.011770219542086124
aaa(lp1348
(lp1349
F0.011696805246174335
aa(lp1350
F0.011696805246174335
aaa(lp1351
(lp1352
F0.011689448729157448
aa(lp1353
F0.011689448729157448
aaa(lp1354
(lp1355
F0.011666795238852501
aa(lp1356
F0.011666795238852501
aaa(lp1357
(lp1358
F0.01159412320703268
aa(lp1359
F0.01159412320703268
aaa(lp1360
(lp1361
F0.011676701717078686
aa(lp1362
F0.011676701717078686
aaa(lp1363
(lp1364
F0.011567595414817333
aa(lp1365
F0.011567595414817333
aaa(lp1366
(lp1367
F0.01159639935940504
aa(lp1368
F0.01159639935940504
aaa(lp1369
(lp1370
F0.011621112003922462
aa(lp1371
F0.011621112003922462
aaa(lp1372
(lp1373
F0.011482171714305878
aa(lp1374
F0.011482171714305878
aaa(lp1375
(lp1376
F0.01321623008698225
aa(lp1377
F0.01321623008698225
aaa(lp1378
(lp1379
F0.013054555281996727
aa(lp1380
F0.013054555281996727
aaa(lp1381
(lp1382
F0.0116535983979702
aa(lp1383
F0.0116535983979702
aaa(lp1384
(lp1385
F0.012788604944944382
aa(lp1386
F0.012788604944944382
aaa(lp1387
(lp1388
F0.013982155360281467
aa(lp1389
F0.013982155360281467
aaa(lp1390
(lp1391
F0.012200060300529003
aa(lp1392
F0.012200060300529003
aaa(lp1393
(lp1394
F0.011532255448400974
aa(lp1395
F0.011532255448400974
aaa(lp1396
(lp1397
F0.011697933077812195
aa(lp1398
F0.011697933077812195
aaa(lp1399
(lp1400
F0.011633001267910004
aa(lp1401
F0.011633001267910004
aaa(lp1402
(lp1403
F0.011586169712245464
aa(lp1404
F0.011586169712245464
aaa(lp1405
(lp1406
F0.011989852413535118
aa(lp1407
F0.011989852413535118
aaa(lp1408
(lp1409
F0.012606450356543064
aa(lp1410
F0.012606450356543064
aaa(lp1411
(lp1412
F0.012657963670790195
aa(lp1413
F0.012657963670790195
aaa(lp1414
(lp1415
F0.012150222435593605
aa(lp1416
F0.012150222435593605
aaa(lp1417
(lp1418
F0.011724689044058323
aa(lp1419
F0.011724689044058323
aaa(lp1420
(lp1421
F0.011643718928098679
aa(lp1422
F0.011643718928098679
aaa(lp1423
(lp1424
F0.011650457978248596
aa(lp1425
F0.011650457978248596
aaa(lp1426
(lp1427
F0.011701435782015324
aa(lp1428
F0.011701435782015324
aaa(lp1429
(lp1430
F0.012001981027424335
aa(lp1431
F0.012001981027424335
aaa(lp1432
(lp1433
F0.012369537726044655
aa(lp1434
F0.012369537726044655
aaa(lp1435
(lp1436
F0.01222458016127348
aa(lp1437
F0.01222458016127348
aaa(lp1438
(lp1439
F0.011801165528595448
aa(lp1440
F0.011801165528595448
aaa(lp1441
(lp1442
F0.011643799021840096
aa(lp1443
F0.011643799021840096
aaa(lp1444
(lp1445
F0.011641377583146095
aa(lp1446
F0.011641377583146095
aaa(lp1447
(lp1448
F0.01171261165291071
aa(lp1449
F0.01171261165291071
aaa(lp1450
(lp1451
F0.012093320488929749
aa(lp1452
F0.012093320488929749
aaa(lp1453
(lp1454
F0.012190078385174274
aa(lp1455
F0.012190078385174274
aaa(lp1456
(lp1457
F0.011806405149400234
aa(lp1458
F0.011806405149400234
aaa(lp1459
(lp1460
F0.011666763573884964
aa(lp1461
F0.011666763573884964
aaa(lp1462
(lp1463
F0.011693690903484821
aa(lp1464
F0.011693690903484821
aaa(lp1465
(lp1466
F0.01189632248133421
aa(lp1467
F0.01189632248133421
aaa(lp1468
(lp1469
F0.012107977643609047
aa(lp1470
F0.012107977643609047
aaa(lp1471
(lp1472
F0.011827843263745308
aa(lp1473
F0.011827843263745308
aaa(lp1474
(lp1475
F0.011712327599525452
aa(lp1476
F0.011712327599525452
aaa(lp1477
(lp1478
F0.011771969497203827
aa(lp1479
F0.011771969497203827
aaa(lp1480
(lp1481
F0.01203995943069458
aa(lp1482
F0.01203995943069458
aaa(lp1483
(lp1484
F0.011861927807331085
aa(lp1485
F0.011861927807331085
aaa(lp1486
(lp1487
F0.011798770166933537
aa(lp1488
F0.011798770166933537
aaa(lp1489
(lp1490
F0.012039254419505596
aa(lp1491
F0.012039254419505596
aaa(lp1492
(lp1493
F0.012028479017317295
aa(lp1494
F0.012028479017317295
aaa(lp1495
(lp1496
F0.011942249722778797
aa(lp1497
F0.011942249722778797
aaa(lp1498
(lp1499
F0.0122657036408782
aa(lp1500
F0.0122657036408782
aaa(lp1501
(lp1502
F0.012089576572179794
aa(lp1503
F0.012089576572179794
aaa(lp1504
(lp1505
F0.012289751321077347
aa(lp1506
F0.012289751321077347
aaa(lp1507
(lp1508
F0.012215720489621162
aa(lp1509
F0.012215720489621162
aaa(lp1510
(lp1511
F0.012359053827822208
aa(lp1512
F0.012359053827822208
aaa(lp1513
(lp1514
F0.01236798707395792
aa(lp1515
F0.01236798707395792
aaa(lp1516
(lp1517
F0.01294640451669693
aa(lp1518
F0.01294640451669693
aaa(lp1519
(lp1520
F0.014609185978770256
aa(lp1521
F0.014609185978770256
aaa(lp1522
(lp1523
F0.020650165155529976
aa(lp1524
F0.020650165155529976
aaa(lp1525
(lp1526
F0.01689177379012108
aa(lp1527
F0.01689177379012108
aaa(lp1528
(lp1529
F0.014815363101661205
aa(lp1530
F0.014815363101661205
aaa(lp1531
(lp1532
F0.01446988619863987
aa(lp1533
F0.01446988619863987
aaa(lp1534
(lp1535
F0.016254542395472527
aa(lp1536
F0.016254542395472527
aaa(lp1537
(lp1538
F0.012735658325254917
aa(lp1539
F0.012735658325254917
aaa(lp1540
(lp1541
F0.01299330871552229
aa(lp1542
F0.01299330871552229
aaa(lp1543
(lp1544
F0.013206468895077705
aa(lp1545
F0.013206468895077705
aaa(lp1546
(lp1547
F0.01259719580411911
aa(lp1548
F0.01259719580411911
aaa(lp1549
(lp1550
F0.012711213901638985
aa(lp1551
F0.012711213901638985
aaa(lp1552
(lp1553
F0.013915186747908592
aa(lp1554
F0.013915186747908592
aaa(lp1555
(lp1556
F0.013305896893143654
aa(lp1557
F0.013305896893143654
aaa(lp1558
(lp1559
F0.012627733871340752
aa(lp1560
F0.012627733871340752
aaa(lp1561
(lp1562
F0.013083497993648052
aa(lp1563
F0.013083497993648052
aaa(lp1564
(lp1565
F0.012914959341287613
aa(lp1566
F0.012914959341287613
aaa(lp1567
(lp1568
F0.01288076676428318
aa(lp1569
F0.01288076676428318
aaa(lp1570
(lp1571
F0.013889010064303875
aa(lp1572
F0.013889010064303875
aaa(lp1573
(lp1574
F0.013168572448194027
aa(lp1575
F0.013168572448194027
aaa(lp1576
(lp1577
F0.013472727499902248
aa(lp1578
F0.013472727499902248
aaa(lp1579
(lp1580
F0.013438435271382332
aa(lp1581
F0.013438435271382332
aaa(lp1582
(lp1583
F0.013657044619321823
aa(lp1584
F0.013657044619321823
aaa(lp1585
(lp1586
F0.013895985670387745
aa(lp1587
F0.013895985670387745
aaa(lp1588
(lp1589
F0.013643632642924786
aa(lp1590
F0.013643632642924786
aaa(lp1591
(lp1592
F0.013736538589000702
aa(lp1593
F0.013736538589000702
aaa(lp1594
(lp1595
F0.014185641892254353
aa(lp1596
F0.014185641892254353
aaa(lp1597
(lp1598
F0.013831914402544498
aa(lp1599
F0.013831914402544498
aaa(lp1600
(lp1601
F0.014189748093485832
aa(lp1602
F0.014189748093485832
aaa(lp1603
(lp1604
F0.014012308791279793
aa(lp1605
F0.014012308791279793
aaa(lp1606
(lp1607
F0.014431421644985676
aa(lp1608
F0.014431421644985676
aaa(lp1609
(lp1610
F0.01450402569025755
aa(lp1611
F0.01450402569025755
aaa(lp1612
(lp1613
F0.014328859746456146
aa(lp1614
F0.014328859746456146
aaa(lp1615
(lp1616
F0.01489049382507801
aa(lp1617
F0.01489049382507801
aaa(lp1618
(lp1619
F0.014886507764458656
aa(lp1620
F0.014886507764458656
aaa(lp1621
(lp1622
F0.014632219448685646
aa(lp1623
F0.014632219448685646
aaa(lp1624
(lp1625
F0.015154281631112099
aa(lp1626
F0.015154281631112099
aaa(lp1627
(lp1628
F0.015450882725417614
aa(lp1629
F0.015450882725417614
aaa(lp1630
(lp1631
F0.015086818486452103
aa(lp1632
F0.015086818486452103
aaa(lp1633
(lp1634
F0.015106302686035633
aa(lp1635
F0.015106302686035633
aaa(lp1636
(lp1637
F0.015593163669109344
aa(lp1638
F0.015593163669109344
aaa(lp1639
(lp1640
F0.01579427719116211
aa(lp1641
F0.01579427719116211
aaa(lp1642
(lp1643
F0.015721844509243965
aa(lp1644
F0.015721844509243965
aaa(lp1645
(lp1646
F0.015520581975579262
aa(lp1647
F0.015520581975579262
aaa(lp1648
(lp1649
F0.015564070083200932
aa(lp1650
F0.015564070083200932
aaa(lp1651
(lp1652
F0.015844447538256645
aa(lp1653
F0.015844447538256645
aaa(lp1654
(lp1655
F0.016104329377412796
aa(lp1656
F0.016104329377412796
aaa(lp1657
(lp1658
F0.0164952352643013
aa(lp1659
F0.0164952352643013
aaa(lp1660
(lp1661
F0.016665229573845863
aa(lp1662
F0.016665229573845863
aaa(lp1663
(lp1664
F0.017168184742331505
aa(lp1665
F0.017168184742331505
aaa(lp1666
(lp1667
F0.016938069835305214
aa(lp1668
F0.016938069835305214
aaa(lp1669
(lp1670
F0.01676962524652481
aa(lp1671
F0.01676962524652481
aaa(lp1672
(lp1673
F0.016173768788576126
aa(lp1674
F0.016173768788576126
aaa(lp1675
(lp1676
F0.016052180901169777
aa(lp1677
F0.016052180901169777
aaa(lp1678
(lp1679
F0.01647290587425232
aa(lp1680
F0.01647290587425232
aaa(lp1681
(lp1682
F0.016806835308670998
aa(lp1683
F0.016806835308670998
aaa(lp1684
(lp1685
F0.017446447163820267
aa(lp1686
F0.017446447163820267
aaa(lp1687
(lp1688
F0.01707448624074459
aa(lp1689
F0.01707448624074459
aaa(lp1690
(lp1691
F0.01703035645186901
aa(lp1692
F0.01703035645186901
aaa(lp1693
(lp1694
F0.016479747369885445
aa(lp1695
F0.016479747369885445
aaa(lp1696
(lp1697
F0.016376029700040817
aa(lp1698
F0.016376029700040817
aaa(lp1699
(lp1700
F0.01646573282778263
aa(lp1701
F0.01646573282778263
aaa(lp1702
(lp1703
F0.01660609245300293
aa(lp1704
F0.01660609245300293
aaa(lp1705
(lp1706
F0.017393700778484344
aa(lp1707
F0.017393700778484344
aaa(lp1708
(lp1709
F0.017836498096585274
aa(lp1710
F0.017836498096585274
aaa(lp1711
(lp1712
F0.020453335717320442
aa(lp1713
F0.020453335717320442
aaa(lp1714
(lp1715
F0.019666029140353203
aa(lp1716
F0.019666029140353203
aaa(lp1717
(lp1718
F0.019104592502117157
aa(lp1719
F0.019104592502117157
aaa(lp1720
(lp1721
F0.01672523096203804
aa(lp1722
F0.01672523096203804
aaa(lp1723
(lp1724
F0.018519284203648567
aa(lp1725
F0.018519284203648567
aaa(lp1726
(lp1727
F0.019407814368605614
aa(lp1728
F0.019407814368605614
aaa(lp1729
(lp1730
F0.017087297514081
aa(lp1731
F0.017087297514081
aaa(lp1732
(lp1733
F0.01929219625890255
aa(lp1734
F0.01929219625890255
aaa(lp1735
(lp1736
F0.018910326063632965
aa(lp1737
F0.018910326063632965
aaa(lp1738
(lp1739
F0.01781098172068596
aa(lp1740
F0.01781098172068596
aaa(lp1741
(lp1742
F0.019479796290397644
aa(lp1743
F0.019479796290397644
aaa(lp1744
(lp1745
F0.01753585785627365
aa(lp1746
F0.01753585785627365
aaa(lp1747
(lp1748
F0.018741441890597343
aa(lp1749
F0.018741441890597343
aaa(lp1750
(lp1751
F0.017937568947672844
aa(lp1752
F0.017937568947672844
aaa(lp1753
(lp1754
F0.017450416460633278
aa(lp1755
F0.017450416460633278
aaa(lp1756
(lp1757
F0.019039006903767586
aa(lp1758
F0.019039006903767586
aaa(lp1759
(lp1760
F0.017450697720050812
aa(lp1761
F0.017450697720050812
aaa(lp1762
(lp1763
F0.018055280670523643
aa(lp1764
F0.018055280670523643
aaa(lp1765
(lp1766
F0.018870865926146507
aa(lp1767
F0.018870865926146507
aaa(lp1768
(lp1769
F0.01752478815615177
aa(lp1770
F0.01752478815615177
aaa(lp1771
(lp1772
F0.018140939995646477
aa(lp1773
F0.018140939995646477
aaa(lp1774
(lp1775
F0.018707137554883957
aa(lp1776
F0.018707137554883957
aaa(lp1777
(lp1778
F0.017520722001791
aa(lp1779
F0.017520722001791
aaa(lp1780
(lp1781
F0.018117571249604225
aa(lp1782
F0.018117571249604225
aaa(lp1783
(lp1784
F0.018759526312351227
aa(lp1785
F0.018759526312351227
aaa(lp1786
(lp1787
F0.017744112759828568
aa(lp1788
F0.017744112759828568
aaa(lp1789
(lp1790
F0.018415523692965508
aa(lp1791
F0.018415523692965508
aaa(lp1792
(lp1793
F0.01920887641608715
aa(lp1794
F0.01920887641608715
aaa(lp1795
(lp1796
F0.018018929287791252
aa(lp1797
F0.018018929287791252
aaa(lp1798
(lp1799
F0.018553031608462334
aa(lp1800
F0.018553031608462334
aaa(lp1801
(lp1802
F0.01940511167049408
aa(lp1803
F0.01940511167049408
aaaa.