(lp0
(lp1
(lp2
(lp3
F0.019163578748703003
aa(lp4
F0.019163578748703003
aaa(lp5
(lp6
F0.019715098664164543
aa(lp7
F0.019715098664164543
aaa(lp8
(lp9
F0.019112054258584976
aa(lp10
F0.019112054258584976
aaa(lp11
(lp12
F0.018853021785616875
aa(lp13
F0.018853021785616875
aaa(lp14
(lp15
F0.019131822511553764
aa(lp16
F0.019131822511553764
aaa(lp17
(lp18
F0.018954331055283546
aa(lp19
F0.018954331055283546
aaa(lp20
(lp21
F0.018841741606593132
aa(lp22
F0.018841741606593132
aaa(lp23
(lp24
F0.018732761964201927
aa(lp25
F0.018732761964201927
aaa(lp26
(lp27
F0.0186416395008564
aa(lp28
F0.0186416395008564
aaa(lp29
(lp30
F0.018791770562529564
aa(lp31
F0.018791770562529564
aaa(lp32
(lp33
F0.018631568178534508
aa(lp34
F0.018631568178534508
aaa(lp35
(lp36
F0.018534686416387558
aa(lp37
F0.018534686416387558
aaa(lp38
(lp39
F0.01849817857146263
aa(lp40
F0.01849817857146263
aaa(lp41
(lp42
F0.018529273569583893
aa(lp43
F0.018529273569583893
aaa(lp44
(lp45
F0.018435193225741386
aa(lp46
F0.018435193225741386
aaa(lp47
(lp48
F0.01845034770667553
aa(lp49
F0.01845034770667553
aaa(lp50
(lp51
F0.01819518767297268
aa(lp52
F0.01819518767297268
aaa(lp53
(lp54
F0.018215812742710114
aa(lp55
F0.018215812742710114
aaa(lp56
(lp57
F0.01818624697625637
aa(lp58
F0.01818624697625637
aaa(lp59
(lp60
F0.018284615129232407
aa(lp61
F0.018284615129232407
aaa(lp62
(lp63
F0.018142621964216232
aa(lp64
F0.018142621964216232
aaa(lp65
(lp66
F0.01793157495558262
aa(lp67
F0.01793157495558262
aaa(lp68
(lp69
F0.018026219680905342
aa(lp70
F0.018026219680905342
aaa(lp71
(lp72
F0.01799602620303631
aa(lp73
F0.01799602620303631
aaa(lp74
(lp75
F0.01808021031320095
aa(lp76
F0.01808021031320095
aaa(lp77
(lp78
F0.01792287826538086
aa(lp79
F0.01792287826538086
aaa(lp80
(lp81
F0.0177619531750679
aa(lp82
F0.0177619531750679
aaa(lp83
(lp84
F0.01762194000184536
aa(lp85
F0.01762194000184536
aaa(lp86
(lp87
F0.017751241102814674
aa(lp88
F0.017751241102814674
aaa(lp89
(lp90
F0.01764550618827343
aa(lp91
F0.01764550618827343
aaa(lp92
(lp93
F0.01758786290884018
aa(lp94
F0.01758786290884018
aaa(lp95
(lp96
F0.0175306499004364
aa(lp97
F0.0175306499004364
aaa(lp98
(lp99
F0.017449025064706802
aa(lp100
F0.017449025064706802
aaa(lp101
(lp102
F0.01739932782948017
aa(lp103
F0.01739932782948017
aaa(lp104
(lp105
F0.01740110106766224
aa(lp106
F0.01740110106766224
aaa(lp107
(lp108
F0.017313675954937935
aa(lp109
F0.017313675954937935
aaa(lp110
(lp111
F0.017164243385195732
aa(lp112
F0.017164243385195732
aaa(lp113
(lp114
F0.017071427777409554
aa(lp115
F0.017071427777409554
aaa(lp116
(lp117
F0.017028678208589554
aa(lp118
F0.017028678208589554
aaa(lp119
(lp120
F0.0168966893106699
aa(lp121
F0.0168966893106699
aaa(lp122
(lp123
F0.016844039782881737
aa(lp124
F0.016844039782881737
aaa(lp125
(lp126
F0.016766421496868134
aa(lp127
F0.016766421496868134
aaa(lp128
(lp129
F0.016740329563617706
aa(lp130
F0.016740329563617706
aaa(lp131
(lp132
F0.01654384657740593
aa(lp133
F0.01654384657740593
aaa(lp134
(lp135
F0.016420569270849228
aa(lp136
F0.016420569270849228
aaa(lp137
(lp138
F0.016207652166485786
aa(lp139
F0.016207652166485786
aaa(lp140
(lp141
F0.01624218560755253
aa(lp142
F0.01624218560755253
aaa(lp143
(lp144
F0.01607380248606205
aa(lp145
F0.01607380248606205
aaa(lp146
(lp147
F0.01593344286084175
aa(lp148
F0.01593344286084175
aaa(lp149
(lp150
F0.01603470742702484
aa(lp151
F0.01603470742702484
aaa(lp152
(lp153
F0.01576375402510166
aa(lp154
F0.01576375402510166
aaa(lp155
(lp156
F0.015599526464939117
aa(lp157
F0.015599526464939117
aaa(lp158
(lp159
F0.015523351728916168
aa(lp160
F0.015523351728916168
aaa(lp161
(lp162
F0.015488122589886189
aa(lp163
F0.015488122589886189
aaa(lp164
(lp165
F0.015287789516150951
aa(lp166
F0.015287789516150951
aaa(lp167
(lp168
F0.015074754133820534
aa(lp169
F0.015074754133820534
aaa(lp170
(lp171
F0.015087557956576347
aa(lp172
F0.015087557956576347
aaa(lp173
(lp174
F0.014949326403439045
aa(lp175
F0.014949326403439045
aaa(lp176
(lp177
F0.015024307183921337
aa(lp178
F0.015024307183921337
aaa(lp179
(lp180
F0.014594576321542263
aa(lp181
F0.014594576321542263
aaa(lp182
(lp183
F0.014607933349907398
aa(lp184
F0.014607933349907398
aaa(lp185
(lp186
F0.014421812258660793
aa(lp187
F0.014421812258660793
aaa(lp188
(lp189
F0.014232001267373562
aa(lp190
F0.014232001267373562
aaa(lp191
(lp192
F0.014033075422048569
aa(lp193
F0.014033075422048569
aaa(lp194
(lp195
F0.013909712433815002
aa(lp196
F0.013909712433815002
aaa(lp197
(lp198
F0.0135742062702775
aa(lp199
F0.0135742062702775
aaa(lp200
(lp201
F0.013616313226521015
aa(lp202
F0.013616313226521015
aaa(lp203
(lp204
F0.01330579910427332
aa(lp205
F0.01330579910427332
aaa(lp206
(lp207
F0.013222913257777691
aa(lp208
F0.013222913257777691
aaa(lp209
(lp210
F0.013052474707365036
aa(lp211
F0.013052474707365036
aaa(lp212
(lp213
F0.01280699111521244
aa(lp214
F0.01280699111521244
aaa(lp215
(lp216
F0.012756980024278164
aa(lp217
F0.012756980024278164
aaa(lp218
(lp219
F0.012578730471432209
aa(lp220
F0.012578730471432209
aaa(lp221
(lp222
F0.012321078218519688
aa(lp223
F0.012321078218519688
aaa(lp224
(lp225
F0.012245070189237595
aa(lp226
F0.012245070189237595
aaa(lp227
(lp228
F0.012071197852492332
aa(lp229
F0.012071197852492332
aaa(lp230
(lp231
F0.011960727162659168
aa(lp232
F0.011960727162659168
aaa(lp233
(lp234
F0.011585707776248455
aa(lp235
F0.011585707776248455
aaa(lp236
(lp237
F0.011545847170054913
aa(lp238
F0.011545847170054913
aaa(lp239
(lp240
F0.011482955887913704
aa(lp241
F0.011482955887913704
aaa(lp242
(lp243
F0.011227946728467941
aa(lp244
F0.011227946728467941
aaa(lp245
(lp246
F0.010824793018400669
aa(lp247
F0.010824793018400669
aaa(lp248
(lp249
F0.01097864005714655
aa(lp250
F0.01097864005714655
aaa(lp251
(lp252
F0.010873842053115368
aa(lp253
F0.010873842053115368
aaa(lp254
(lp255
F0.010679803788661957
aa(lp256
F0.010679803788661957
aaa(lp257
(lp258
F0.01027422770857811
aa(lp259
F0.01027422770857811
aaa(lp260
(lp261
F0.010298864915966988
aa(lp262
F0.010298864915966988
aaa(lp263
(lp264
F0.010128604248166084
aa(lp265
F0.010128604248166084
aaa(lp266
(lp267
F0.009875880554318428
aa(lp268
F0.009875880554318428
aaa(lp269
(lp270
F0.00964262057095766
aa(lp271
F0.00964262057095766
aaa(lp272
(lp273
F0.009692220017313957
aa(lp274
F0.009692220017313957
aaa(lp275
(lp276
F0.0092872129753232
aa(lp277
F0.0092872129753232
aaa(lp278
(lp279
F0.009329236112535
aa(lp280
F0.009329236112535
aaa(lp281
(lp282
F0.009259725920855999
aa(lp283
F0.009259725920855999
aaa(lp284
(lp285
F0.00898272730410099
aa(lp286
F0.00898272730410099
aaa(lp287
(lp288
F0.00889277458190918
aa(lp289
F0.00889277458190918
aaa(lp290
(lp291
F0.00874863751232624
aa(lp292
F0.00874863751232624
aaa(lp293
(lp294
F0.008533771149814129
aa(lp295
F0.008533771149814129
aaa(lp296
(lp297
F0.00855831615626812
aa(lp298
F0.00855831615626812
aaa(lp299
(lp300
F0.008363556116819382
aa(lp301
F0.008363556116819382
aaaa(lp302
(lp303
(lp304
F0.012327580712735653
aa(lp305
F0.012327580712735653
aaa(lp306
(lp307
F0.011909467168152332
aa(lp308
F0.011909467168152332
aaa(lp309
(lp310
F0.01204919908195734
aa(lp311
F0.01204919908195734
aaa(lp312
(lp313
F0.012559134513139725
aa(lp314
F0.012559134513139725
aaa(lp315
(lp316
F0.012493801303207874
aa(lp317
F0.012493801303207874
aaa(lp318
(lp319
F0.01211189292371273
aa(lp320
F0.01211189292371273
aaa(lp321
(lp322
F0.01188192144036293
aa(lp323
F0.01188192144036293
aaa(lp324
(lp325
F0.011871467344462872
aa(lp326
F0.011871467344462872
aaa(lp327
(lp328
F0.01188987772911787
aa(lp329
F0.01188987772911787
aaa(lp330
(lp331
F0.011846980080008507
aa(lp332
F0.011846980080008507
aaa(lp333
(lp334
F0.011818435043096542
aa(lp335
F0.011818435043096542
aaa(lp336
(lp337
F0.011890210211277008
aa(lp338
F0.011890210211277008
aaa(lp339
(lp340
F0.012021868489682674
aa(lp341
F0.012021868489682674
aaa(lp342
(lp343
F0.012092114426195621
aa(lp344
F0.012092114426195621
aaa(lp345
(lp346
F0.012034200131893158
aa(lp347
F0.012034200131893158
aaa(lp348
(lp349
F0.01190228946506977
aa(lp350
F0.01190228946506977
aaa(lp351
(lp352
F0.01179044134914875
aa(lp353
F0.01179044134914875
aaa(lp354
(lp355
F0.011740953661501408
aa(lp356
F0.011740953661501408
aaa(lp357
(lp358
F0.011729422025382519
aa(lp359
F0.011729422025382519
aaa(lp360
(lp361
F0.01171896606683731
aa(lp362
F0.01171896606683731
aaa(lp363
(lp364
F0.011717448942363262
aa(lp365
F0.011717448942363262
aaa(lp366
(lp367
F0.011754811741411686
aa(lp368
F0.011754811741411686
aaa(lp369
(lp370
F0.011822562664747238
aa(lp371
F0.011822562664747238
aaa(lp372
(lp373
F0.011864442378282547
aa(lp374
F0.011864442378282547
aaa(lp375
(lp376
F0.011830012314021587
aa(lp377
F0.011830012314021587
aaa(lp378
(lp379
F0.011751842685043812
aa(lp380
F0.011751842685043812
aaa(lp381
(lp382
F0.011688548140227795
aa(lp383
F0.011688548140227795
aaa(lp384
(lp385
F0.01165299117565155
aa(lp386
F0.01165299117565155
aaa(lp387
(lp388
F0.011637873947620392
aa(lp389
F0.011637873947620392
aaa(lp390
(lp391
F0.011633600108325481
aa(lp392
F0.011633600108325481
aaa(lp393
(lp394
F0.011657323688268661
aa(lp395
F0.011657323688268661
aaa(lp396
(lp397
F0.011697784066200256
aa(lp398
F0.011697784066200256
aaa(lp399
(lp400
F0.01170868705958128
aa(lp401
F0.01170868705958128
aaa(lp402
(lp403
F0.01165070105344057
aa(lp404
F0.01165070105344057
aaa(lp405
(lp406
F0.011576460674405098
aa(lp407
F0.011576460674405098
aaa(lp408
(lp409
F0.011531506665050983
aa(lp410
F0.011531506665050983
aaa(lp411
(lp412
F0.011511700227856636
aa(lp413
F0.011511700227856636
aaa(lp414
(lp415
F0.011511514894664288
aa(lp416
F0.011511514894664288
aaa(lp417
(lp418
F0.01153347548097372
aa(lp419
F0.01153347548097372
aaa(lp420
(lp421
F0.01154707558453083
aa(lp422
F0.01154707558453083
aaa(lp423
(lp424
F0.011501609347760677
aa(lp425
F0.011501609347760677
aaa(lp426
(lp427
F0.011439702473580837
aa(lp428
F0.011439702473580837
aaa(lp429
(lp430
F0.011399899609386921
aa(lp431
F0.011399899609386921
aaa(lp432
(lp433
F0.011390705592930317
aa(lp434
F0.011390705592930317
aaa(lp435
(lp436
F0.011409532278776169
aa(lp437
F0.011409532278776169
aaa(lp438
(lp439
F0.011439511552453041
aa(lp440
F0.011439511552453041
aaa(lp441
(lp442
F0.01141968835145235
aa(lp443
F0.01141968835145235
aaa(lp444
(lp445
F0.01138093788176775
aa(lp446
F0.01138093788176775
aaa(lp447
(lp448
F0.01135310996323824
aa(lp449
F0.01135310996323824
aaa(lp450
(lp451
F0.011346574872732162
aa(lp452
F0.011346574872732162
aaa(lp453
(lp454
F0.011368367820978165
aa(lp455
F0.011368367820978165
aaa(lp456
(lp457
F0.01135160494595766
aa(lp458
F0.01135160494595766
aaa(lp459
(lp460
F0.011300694197416306
aa(lp461
F0.011300694197416306
aaa(lp462
(lp463
F0.011257502250373363
aa(lp464
F0.011257502250373363
aaa(lp465
(lp466
F0.011252827942371368
aa(lp467
F0.011252827942371368
aaa(lp468
(lp469
F0.011274279095232487
aa(lp470
F0.011274279095232487
aaa(lp471
(lp472
F0.011243389919400215
aa(lp473
F0.011243389919400215
aaa(lp474
(lp475
F0.011163031682372093
aa(lp476
F0.011163031682372093
aaa(lp477
(lp478
F0.011136509478092194
aa(lp479
F0.011136509478092194
aaa(lp480
(lp481
F0.011153846979141235
aa(lp482
F0.011153846979141235
aaa(lp483
(lp484
F0.011138231493532658
aa(lp485
F0.011138231493532658
aaa(lp486
(lp487
F0.01106412336230278
aa(lp488
F0.01106412336230278
aaa(lp489
(lp490
F0.011037604883313179
aa(lp491
F0.011037604883313179
aaa(lp492
(lp493
F0.011063307523727417
aa(lp494
F0.011063307523727417
aaa(lp495
(lp496
F0.011025792919099331
aa(lp497
F0.011025792919099331
aaa(lp498
(lp499
F0.010969279333949089
aa(lp500
F0.010969279333949089
aaa(lp501
(lp502
F0.010971268638968468
aa(lp503
F0.010971268638968468
aaa(lp504
(lp505
F0.010970593430101871
aa(lp506
F0.010970593430101871
aaa(lp507
(lp508
F0.010883609764277935
aa(lp509
F0.010883609764277935
aaa(lp510
(lp511
F0.010907757095992565
aa(lp512
F0.010907757095992565
aaa(lp513
(lp514
F0.01085748989135027
aa(lp515
F0.01085748989135027
aaa(lp516
(lp517
F0.010772023350000381
aa(lp518
F0.010772023350000381
aaa(lp519
(lp520
F0.010835904628038406
aa(lp521
F0.010835904628038406
aaa(lp522
(lp523
F0.010730248875916004
aa(lp524
F0.010730248875916004
aaa(lp525
(lp526
F0.010683342814445496
aa(lp527
F0.010683342814445496
aaa(lp528
(lp529
F0.010832476429641247
aa(lp530
F0.010832476429641247
aaa(lp531
(lp532
F0.010640198364853859
aa(lp533
F0.010640198364853859
aaa(lp534
(lp535
F0.010621634311974049
aa(lp536
F0.010621634311974049
aaa(lp537
(lp538
F0.010810686275362968
aa(lp539
F0.010810686275362968
aaa(lp540
(lp541
F0.010649306699633598
aa(lp542
F0.010649306699633598
aaa(lp543
(lp544
F0.010691863484680653
aa(lp545
F0.010691863484680653
aaa(lp546
(lp547
F0.010616959072649479
aa(lp548
F0.010616959072649479
aaa(lp549
(lp550
F0.010626670904457569
aa(lp551
F0.010626670904457569
aaa(lp552
(lp553
F0.01081759575754404
aa(lp554
F0.01081759575754404
aaa(lp555
(lp556
F0.010566550306975842
aa(lp557
F0.010566550306975842
aaa(lp558
(lp559
F0.010557920671999454
aa(lp560
F0.010557920671999454
aaa(lp561
(lp562
F0.010700655169785023
aa(lp563
F0.010700655169785023
aaa(lp564
(lp565
F0.010552862659096718
aa(lp566
F0.010552862659096718
aaa(lp567
(lp568
F0.010593007318675518
aa(lp569
F0.010593007318675518
aaa(lp570
(lp571
F0.010602005757391453
aa(lp572
F0.010602005757391453
aaa(lp573
(lp574
F0.010561804287135601
aa(lp575
F0.010561804287135601
aaa(lp576
(lp577
F0.010724391788244247
aa(lp578
F0.010724391788244247
aaa(lp579
(lp580
F0.010592822916805744
aa(lp581
F0.010592822916805744
aaa(lp582
(lp583
F0.010778608731925488
aa(lp584
F0.010778608731925488
aaa(lp585
(lp586
F0.010589586570858955
aa(lp587
F0.010589586570858955
aaa(lp588
(lp589
F0.01058795116841793
aa(lp590
F0.01058795116841793
aaa(lp591
(lp592
F0.010660828091204166
aa(lp593
F0.010660828091204166
aaa(lp594
(lp595
F0.010700480081140995
aa(lp596
F0.010700480081140995
aaa(lp597
(lp598
F0.011219881474971771
aa(lp599
F0.011219881474971771
aaa(lp600
(lp601
F0.010836198925971985
aa(lp602
F0.010836198925971985
aaaa(lp603
(lp604
(lp605
F0.012327580712735653
aa(lp606
F0.012327580712735653
aaa(lp607
(lp608
F0.011909467168152332
aa(lp609
F0.011909467168152332
aaa(lp610
(lp611
F0.01204919908195734
aa(lp612
F0.01204919908195734
aaa(lp613
(lp614
F0.012559134513139725
aa(lp615
F0.012559134513139725
aaa(lp616
(lp617
F0.012493801303207874
aa(lp618
F0.012493801303207874
aaa(lp619
(lp620
F0.01211189292371273
aa(lp621
F0.01211189292371273
aaa(lp622
(lp623
F0.01188192144036293
aa(lp624
F0.01188192144036293
aaa(lp625
(lp626
F0.011871467344462872
aa(lp627
F0.011871467344462872
aaa(lp628
(lp629
F0.01188987772911787
aa(lp630
F0.01188987772911787
aaa(lp631
(lp632
F0.011846980080008507
aa(lp633
F0.011846980080008507
aaa(lp634
(lp635
F0.011818435043096542
aa(lp636
F0.011818435043096542
aaa(lp637
(lp638
F0.011890210211277008
aa(lp639
F0.011890210211277008
aaa(lp640
(lp641
F0.012021868489682674
aa(lp642
F0.012021868489682674
aaa(lp643
(lp644
F0.012092114426195621
aa(lp645
F0.012092114426195621
aaa(lp646
(lp647
F0.012034200131893158
aa(lp648
F0.012034200131893158
aaa(lp649
(lp650
F0.01190228946506977
aa(lp651
F0.01190228946506977
aaa(lp652
(lp653
F0.01179044134914875
aa(lp654
F0.01179044134914875
aaa(lp655
(lp656
F0.011740953661501408
aa(lp657
F0.011740953661501408
aaa(lp658
(lp659
F0.011729422025382519
aa(lp660
F0.011729422025382519
aaa(lp661
(lp662
F0.01171896606683731
aa(lp663
F0.01171896606683731
aaa(lp664
(lp665
F0.011717448942363262
aa(lp666
F0.011717448942363262
aaa(lp667
(lp668
F0.011754811741411686
aa(lp669
F0.011754811741411686
aaa(lp670
(lp671
F0.011822562664747238
aa(lp672
F0.011822562664747238
aaa(lp673
(lp674
F0.011864442378282547
aa(lp675
F0.011864442378282547
aaa(lp676
(lp677
F0.011830012314021587
aa(lp678
F0.011830012314021587
aaa(lp679
(lp680
F0.011751842685043812
aa(lp681
F0.011751842685043812
aaa(lp682
(lp683
F0.011688548140227795
aa(lp684
F0.011688548140227795
aaa(lp685
(lp686
F0.01165299117565155
aa(lp687
F0.01165299117565155
aaa(lp688
(lp689
F0.011637873947620392
aa(lp690
F0.011637873947620392
aaa(lp691
(lp692
F0.011633600108325481
aa(lp693
F0.011633600108325481
aaa(lp694
(lp695
F0.011657323688268661
aa(lp696
F0.011657323688268661
aaa(lp697
(lp698
F0.011697784066200256
aa(lp699
F0.011697784066200256
aaa(lp700
(lp701
F0.01170868705958128
aa(lp702
F0.01170868705958128
aaa(lp703
(lp704
F0.01165070105344057
aa(lp705
F0.01165070105344057
aaa(lp706
(lp707
F0.011576460674405098
aa(lp708
F0.011576460674405098
aaa(lp709
(lp710
F0.011531506665050983
aa(lp711
F0.011531506665050983
aaa(lp712
(lp713
F0.011511700227856636
aa(lp714
F0.011511700227856636
aaa(lp715
(lp716
F0.011511514894664288
aa(lp717
F0.011511514894664288
aaa(lp718
(lp719
F0.01153347548097372
aa(lp720
F0.01153347548097372
aaa(lp721
(lp722
F0.01154707558453083
aa(lp723
F0.01154707558453083
aaa(lp724
(lp725
F0.011501609347760677
aa(lp726
F0.011501609347760677
aaa(lp727
(lp728
F0.011439702473580837
aa(lp729
F0.011439702473580837
aaa(lp730
(lp731
F0.011399899609386921
aa(lp732
F0.011399899609386921
aaa(lp733
(lp734
F0.011390705592930317
aa(lp735
F0.011390705592930317
aaa(lp736
(lp737
F0.011409532278776169
aa(lp738
F0.011409532278776169
aaa(lp739
(lp740
F0.011439511552453041
aa(lp741
F0.011439511552453041
aaa(lp742
(lp743
F0.01141968835145235
aa(lp744
F0.01141968835145235
aaa(lp745
(lp746
F0.01138093788176775
aa(lp747
F0.01138093788176775
aaa(lp748
(lp749
F0.01135310996323824
aa(lp750
F0.01135310996323824
aaa(lp751
(lp752
F0.011346574872732162
aa(lp753
F0.011346574872732162
aaa(lp754
(lp755
F0.011368367820978165
aa(lp756
F0.011368367820978165
aaa(lp757
(lp758
F0.01135160494595766
aa(lp759
F0.01135160494595766
aaa(lp760
(lp761
F0.011300694197416306
aa(lp762
F0.011300694197416306
aaa(lp763
(lp764
F0.011257502250373363
aa(lp765
F0.011257502250373363
aaa(lp766
(lp767
F0.011252827942371368
aa(lp768
F0.011252827942371368
aaa(lp769
(lp770
F0.011274279095232487
aa(lp771
F0.011274279095232487
aaa(lp772
(lp773
F0.011243389919400215
aa(lp774
F0.011243389919400215
aaa(lp775
(lp776
F0.011163031682372093
aa(lp777
F0.011163031682372093
aaa(lp778
(lp779
F0.011136509478092194
aa(lp780
F0.011136509478092194
aaa(lp781
(lp782
F0.011153846979141235
aa(lp783
F0.011153846979141235
aaa(lp784
(lp785
F0.011138231493532658
aa(lp786
F0.011138231493532658
aaa(lp787
(lp788
F0.01106412336230278
aa(lp789
F0.01106412336230278
aaa(lp790
(lp791
F0.011037604883313179
aa(lp792
F0.011037604883313179
aaa(lp793
(lp794
F0.011063307523727417
aa(lp795
F0.011063307523727417
aaa(lp796
(lp797
F0.011025792919099331
aa(lp798
F0.011025792919099331
aaa(lp799
(lp800
F0.010969279333949089
aa(lp801
F0.010969279333949089
aaa(lp802
(lp803
F0.010971268638968468
aa(lp804
F0.010971268638968468
aaa(lp805
(lp806
F0.010970593430101871
aa(lp807
F0.010970593430101871
aaa(lp808
(lp809
F0.010883609764277935
aa(lp810
F0.010883609764277935
aaa(lp811
(lp812
F0.010907757095992565
aa(lp813
F0.010907757095992565
aaa(lp814
(lp815
F0.01085748989135027
aa(lp816
F0.01085748989135027
aaa(lp817
(lp818
F0.010772023350000381
aa(lp819
F0.010772023350000381
aaa(lp820
(lp821
F0.010835904628038406
aa(lp822
F0.010835904628038406
aaa(lp823
(lp824
F0.010730248875916004
aa(lp825
F0.010730248875916004
aaa(lp826
(lp827
F0.010683342814445496
aa(lp828
F0.010683342814445496
aaa(lp829
(lp830
F0.010832476429641247
aa(lp831
F0.010832476429641247
aaa(lp832
(lp833
F0.010640198364853859
aa(lp834
F0.010640198364853859
aaa(lp835
(lp836
F0.010621634311974049
aa(lp837
F0.010621634311974049
aaa(lp838
(lp839
F0.010810686275362968
aa(lp840
F0.010810686275362968
aaa(lp841
(lp842
F0.010649306699633598
aa(lp843
F0.010649306699633598
aaa(lp844
(lp845
F0.010691863484680653
aa(lp846
F0.010691863484680653
aaa(lp847
(lp848
F0.010616959072649479
aa(lp849
F0.010616959072649479
aaa(lp850
(lp851
F0.010626670904457569
aa(lp852
F0.010626670904457569
aaa(lp853
(lp854
F0.01081759575754404
aa(lp855
F0.01081759575754404
aaa(lp856
(lp857
F0.010566550306975842
aa(lp858
F0.010566550306975842
aaa(lp859
(lp860
F0.010557920671999454
aa(lp861
F0.010557920671999454
aaa(lp862
(lp863
F0.010700655169785023
aa(lp864
F0.010700655169785023
aaa(lp865
(lp866
F0.010552862659096718
aa(lp867
F0.010552862659096718
aaa(lp868
(lp869
F0.010593007318675518
aa(lp870
F0.010593007318675518
aaa(lp871
(lp872
F0.010602005757391453
aa(lp873
F0.010602005757391453
aaa(lp874
(lp875
F0.010561804287135601
aa(lp876
F0.010561804287135601
aaa(lp877
(lp878
F0.010724391788244247
aa(lp879
F0.010724391788244247
aaa(lp880
(lp881
F0.010592822916805744
aa(lp882
F0.010592822916805744
aaa(lp883
(lp884
F0.010778608731925488
aa(lp885
F0.010778608731925488
aaa(lp886
(lp887
F0.010589586570858955
aa(lp888
F0.010589586570858955
aaa(lp889
(lp890
F0.01058795116841793
aa(lp891
F0.01058795116841793
aaa(lp892
(lp893
F0.010660828091204166
aa(lp894
F0.010660828091204166
aaa(lp895
(lp896
F0.010700480081140995
aa(lp897
F0.010700480081140995
aaa(lp898
(lp899
F0.011219881474971771
aa(lp900
F0.011219881474971771
aaa(lp901
(lp902
F0.010836198925971985
aa(lp903
F0.010836198925971985
aaaa.